
kernel/target/riscv64gc-unknown-none-elf/debug/kernel:     file format elf64-littleriscv


Disassembly of section .text:

0000000080000000 <_entry>:
    80000000:	00037117          	auipc	sp,0x37
    80000004:	54010113          	addi	sp,sp,1344 # 80037540 <stack0>
    80000008:	6511                	lui	a0,0x4
    8000000a:	f14025f3          	csrr	a1,mhartid
    8000000e:	0585                	addi	a1,a1,1
    80000010:	02b50533          	mul	a0,a0,a1
    80000014:	912a                	add	sp,sp,a0
    80000016:	0000c097          	auipc	ra,0xc
    8000001a:	2f8080e7          	jalr	760(ra) # 8000c30e <start>
    8000001e:	0001                	nop

0000000080000020 <kernelvec>:
    80000020:	7111                	addi	sp,sp,-256
    80000022:	e006                	sd	ra,0(sp)
    80000024:	e40a                	sd	sp,8(sp)
    80000026:	e80e                	sd	gp,16(sp)
    80000028:	ec12                	sd	tp,24(sp)
    8000002a:	f016                	sd	t0,32(sp)
    8000002c:	f41a                	sd	t1,40(sp)
    8000002e:	f81e                	sd	t2,48(sp)
    80000030:	fc22                	sd	s0,56(sp)
    80000032:	e0a6                	sd	s1,64(sp)
    80000034:	e4aa                	sd	a0,72(sp)
    80000036:	e8ae                	sd	a1,80(sp)
    80000038:	ecb2                	sd	a2,88(sp)
    8000003a:	f0b6                	sd	a3,96(sp)
    8000003c:	f4ba                	sd	a4,104(sp)
    8000003e:	f8be                	sd	a5,112(sp)
    80000040:	fcc2                	sd	a6,120(sp)
    80000042:	e146                	sd	a7,128(sp)
    80000044:	e54a                	sd	s2,136(sp)
    80000046:	e94e                	sd	s3,144(sp)
    80000048:	ed52                	sd	s4,152(sp)
    8000004a:	f156                	sd	s5,160(sp)
    8000004c:	f55a                	sd	s6,168(sp)
    8000004e:	f95e                	sd	s7,176(sp)
    80000050:	fd62                	sd	s8,184(sp)
    80000052:	e1e6                	sd	s9,192(sp)
    80000054:	e5ea                	sd	s10,200(sp)
    80000056:	e9ee                	sd	s11,208(sp)
    80000058:	edf2                	sd	t3,216(sp)
    8000005a:	f1f6                	sd	t4,224(sp)
    8000005c:	f5fa                	sd	t5,232(sp)
    8000005e:	f9fe                	sd	t6,240(sp)
    80000060:	00006097          	auipc	ra,0x6
    80000064:	714080e7          	jalr	1812(ra) # 80006774 <kernel_trap>
    80000068:	6082                	ld	ra,0(sp)
    8000006a:	6122                	ld	sp,8(sp)
    8000006c:	61c2                	ld	gp,16(sp)
    8000006e:	7282                	ld	t0,32(sp)
    80000070:	7322                	ld	t1,40(sp)
    80000072:	73c2                	ld	t2,48(sp)
    80000074:	7462                	ld	s0,56(sp)
    80000076:	6486                	ld	s1,64(sp)
    80000078:	6526                	ld	a0,72(sp)
    8000007a:	65c6                	ld	a1,80(sp)
    8000007c:	6666                	ld	a2,88(sp)
    8000007e:	7686                	ld	a3,96(sp)
    80000080:	7726                	ld	a4,104(sp)
    80000082:	77c6                	ld	a5,112(sp)
    80000084:	7866                	ld	a6,120(sp)
    80000086:	688a                	ld	a7,128(sp)
    80000088:	692a                	ld	s2,136(sp)
    8000008a:	69ca                	ld	s3,144(sp)
    8000008c:	6a6a                	ld	s4,152(sp)
    8000008e:	7a8a                	ld	s5,160(sp)
    80000090:	7b2a                	ld	s6,168(sp)
    80000092:	7bca                	ld	s7,176(sp)
    80000094:	7c6a                	ld	s8,184(sp)
    80000096:	6c8e                	ld	s9,192(sp)
    80000098:	6d2e                	ld	s10,200(sp)
    8000009a:	6dce                	ld	s11,208(sp)
    8000009c:	6e6e                	ld	t3,216(sp)
    8000009e:	7e8e                	ld	t4,224(sp)
    800000a0:	7f2e                	ld	t5,232(sp)
    800000a2:	7fce                	ld	t6,240(sp)
    800000a4:	6111                	addi	sp,sp,256
    800000a6:	10200073          	sret
    800000aa:	00000013          	nop
    800000ae:	0001                	nop

00000000800000b0 <timervec>:
    800000b0:	34051573          	csrrw	a0,mscratch,a0
    800000b4:	e10c                	sd	a1,0(a0)
    800000b6:	e510                	sd	a2,8(a0)
    800000b8:	e914                	sd	a3,16(a0)
    800000ba:	6d0c                	ld	a1,24(a0)
    800000bc:	7110                	ld	a2,32(a0)
    800000be:	6194                	ld	a3,0(a1)
    800000c0:	96b2                	add	a3,a3,a2
    800000c2:	e194                	sd	a3,0(a1)
    800000c4:	4589                	li	a1,2
    800000c6:	14459073          	csrw	sip,a1
    800000ca:	6914                	ld	a3,16(a0)
    800000cc:	6510                	ld	a2,8(a0)
    800000ce:	610c                	ld	a1,0(a0)
    800000d0:	34051573          	csrrw	a0,mscratch,a0
    800000d4:	30200073          	mret
	...

0000000080001000 <trampoline>:
    80001000:	14051573          	csrrw	a0,sscratch,a0
    80001004:	02153423          	sd	ra,40(a0) # 4028 <.Lline_table_start0+0x3a2>
    80001008:	02253823          	sd	sp,48(a0)
    8000100c:	02353c23          	sd	gp,56(a0)
    80001010:	04453023          	sd	tp,64(a0)
    80001014:	04553423          	sd	t0,72(a0)
    80001018:	04653823          	sd	t1,80(a0)
    8000101c:	04753c23          	sd	t2,88(a0)
    80001020:	f120                	sd	s0,96(a0)
    80001022:	f524                	sd	s1,104(a0)
    80001024:	fd2c                	sd	a1,120(a0)
    80001026:	e150                	sd	a2,128(a0)
    80001028:	e554                	sd	a3,136(a0)
    8000102a:	e958                	sd	a4,144(a0)
    8000102c:	ed5c                	sd	a5,152(a0)
    8000102e:	0b053023          	sd	a6,160(a0)
    80001032:	0b153423          	sd	a7,168(a0)
    80001036:	0b253823          	sd	s2,176(a0)
    8000103a:	0b353c23          	sd	s3,184(a0)
    8000103e:	0d453023          	sd	s4,192(a0)
    80001042:	0d553423          	sd	s5,200(a0)
    80001046:	0d653823          	sd	s6,208(a0)
    8000104a:	0d753c23          	sd	s7,216(a0)
    8000104e:	0f853023          	sd	s8,224(a0)
    80001052:	0f953423          	sd	s9,232(a0)
    80001056:	0fa53823          	sd	s10,240(a0)
    8000105a:	0fb53c23          	sd	s11,248(a0)
    8000105e:	11c53023          	sd	t3,256(a0)
    80001062:	11d53423          	sd	t4,264(a0)
    80001066:	11e53823          	sd	t5,272(a0)
    8000106a:	11f53c23          	sd	t6,280(a0)
    8000106e:	140022f3          	csrr	t0,sscratch
    80001072:	06553823          	sd	t0,112(a0)
    80001076:	141022f3          	csrr	t0,sepc
    8000107a:	00553c23          	sd	t0,24(a0)
    8000107e:	00853103          	ld	sp,8(a0)
    80001082:	02053203          	ld	tp,32(a0)
    80001086:	01053283          	ld	t0,16(a0)
    8000108a:	00053303          	ld	t1,0(a0)
    8000108e:	18031073          	csrw	satp,t1
    80001092:	12000073          	sfence.vma
    80001096:	8282                	jr	t0
	...

00000000800010a0 <userret>:
    800010a0:	18059073          	csrw	satp,a1
    800010a4:	12000073          	sfence.vma
    800010a8:	07053283          	ld	t0,112(a0)
    800010ac:	14029073          	csrw	sscratch,t0
    800010b0:	02853083          	ld	ra,40(a0)
    800010b4:	03053103          	ld	sp,48(a0)
    800010b8:	03853183          	ld	gp,56(a0)
    800010bc:	04053203          	ld	tp,64(a0)
    800010c0:	04853283          	ld	t0,72(a0)
    800010c4:	05053303          	ld	t1,80(a0)
    800010c8:	05853383          	ld	t2,88(a0)
    800010cc:	7120                	ld	s0,96(a0)
    800010ce:	7524                	ld	s1,104(a0)
    800010d0:	7d2c                	ld	a1,120(a0)
    800010d2:	6150                	ld	a2,128(a0)
    800010d4:	6554                	ld	a3,136(a0)
    800010d6:	6958                	ld	a4,144(a0)
    800010d8:	6d5c                	ld	a5,152(a0)
    800010da:	0a053803          	ld	a6,160(a0)
    800010de:	0a853883          	ld	a7,168(a0)
    800010e2:	0b053903          	ld	s2,176(a0)
    800010e6:	0b853983          	ld	s3,184(a0)
    800010ea:	0c053a03          	ld	s4,192(a0)
    800010ee:	0c853a83          	ld	s5,200(a0)
    800010f2:	0d053b03          	ld	s6,208(a0)
    800010f6:	0d853b83          	ld	s7,216(a0)
    800010fa:	0e053c03          	ld	s8,224(a0)
    800010fe:	0e853c83          	ld	s9,232(a0)
    80001102:	0f053d03          	ld	s10,240(a0)
    80001106:	0f853d83          	ld	s11,248(a0)
    8000110a:	10053e03          	ld	t3,256(a0)
    8000110e:	10853e83          	ld	t4,264(a0)
    80001112:	11053f03          	ld	t5,272(a0)
    80001116:	11853f83          	ld	t6,280(a0)
    8000111a:	14051573          	csrrw	a0,sscratch,a0
    8000111e:	10200073          	sret

0000000080001122 <switch>:
    80001122:	00153023          	sd	ra,0(a0)
    80001126:	00253423          	sd	sp,8(a0)
    8000112a:	e900                	sd	s0,16(a0)
    8000112c:	ed04                	sd	s1,24(a0)
    8000112e:	03253023          	sd	s2,32(a0)
    80001132:	03353423          	sd	s3,40(a0)
    80001136:	03453823          	sd	s4,48(a0)
    8000113a:	03553c23          	sd	s5,56(a0)
    8000113e:	05653023          	sd	s6,64(a0)
    80001142:	05753423          	sd	s7,72(a0)
    80001146:	05853823          	sd	s8,80(a0)
    8000114a:	05953c23          	sd	s9,88(a0)
    8000114e:	07a53023          	sd	s10,96(a0)
    80001152:	07b53423          	sd	s11,104(a0)
    80001156:	0005b083          	ld	ra,0(a1)
    8000115a:	0085b103          	ld	sp,8(a1)
    8000115e:	6980                	ld	s0,16(a1)
    80001160:	6d84                	ld	s1,24(a1)
    80001162:	0205b903          	ld	s2,32(a1)
    80001166:	0285b983          	ld	s3,40(a1)
    8000116a:	0305ba03          	ld	s4,48(a1)
    8000116e:	0385ba83          	ld	s5,56(a1)
    80001172:	0405bb03          	ld	s6,64(a1)
    80001176:	0485bb83          	ld	s7,72(a1)
    8000117a:	0505bc03          	ld	s8,80(a1)
    8000117e:	0585bc83          	ld	s9,88(a1)
    80001182:	0605bd03          	ld	s10,96(a1)
    80001186:	0685bd83          	ld	s11,104(a1)
    8000118a:	8082                	ret

Disassembly of section .text._ZN6kernel7process3elf8load_seg17h8e22665aca7680efE:

000000008000118c <_ZN6kernel7process3elf8load_seg17h8e22665aca7680efE>:
/// va must be page-aligned
/// and the pages from va to va+sz must already be mapped.
/// Returns 0 on success, -1 on failure.
#[allow(unused_variables)]
#[allow(unused_assignments)]
fn load_seg(
    8000118c:	7111                	addi	sp,sp,-256
    8000118e:	fd86                	sd	ra,248(sp)
    80001190:	e4ba                	sd	a4,72(sp)
    80001192:	e8b6                	sd	a3,80(sp)
    80001194:	ecb2                	sd	a2,88(sp)
    80001196:	f0ae                	sd	a1,96(sp)
    80001198:	85aa                	mv	a1,a0
    8000119a:	7506                	ld	a0,96(sp)
    8000119c:	f4ae                	sd	a1,104(sp)
    8000119e:	e5ae                	sd	a1,200(sp)
    800011a0:	e9aa                	sd	a0,208(sp)
    800011a2:	edb2                	sd	a2,216(sp)
    800011a4:	f1b6                	sd	a3,224(sp)
    800011a6:	f5ba                	sd	a4,232(sp)
    inode_data: &mut SleepLockGuard<InodeData>,
    offset: usize, 
    size: usize
) -> Result<(), &'static str> {
    // 生成虚拟地址
    let mut va = VirtualAddress::new(va);
    800011a8:	00010097          	auipc	ra,0x10
    800011ac:	370080e7          	jalr	880(ra) # 80011518 <_ZN6kernel6memory7address14VirtualAddress3new17h716be423461f1938E>
    800011b0:	e12a                	sd	a0,128(sp)
    800011b2:	a009                	j	800011b4 <_ZN6kernel7process3elf8load_seg17h8e22665aca7680efE+0x28>
    800011b4:	0108                	addi	a0,sp,128
    if !va.is_page_aligned() {
    800011b6:	00003097          	auipc	ra,0x3
    800011ba:	6aa080e7          	jalr	1706(ra) # 80004860 <_ZN6kernel6memory7address4Addr15is_page_aligned17h21d9aa1b7bd151ebE>
    800011be:	e0aa                	sd	a0,64(sp)
    800011c0:	a009                	j	800011c2 <_ZN6kernel7process3elf8load_seg17h8e22665aca7680efE+0x36>
    800011c2:	6506                	ld	a0,64(sp)
    800011c4:	e10d                	bnez	a0,800011e6 <.LBB0_33+0x16>
    800011c6:	a009                	j	800011c8 <.LBB0_32>

00000000800011c8 <.LBB0_32>:
        panic!("load_seg(): va must be page aligned.");
    800011c8:	00024517          	auipc	a0,0x24
    800011cc:	ed850513          	addi	a0,a0,-296 # 800250a0 <.L__unnamed_1>

00000000800011d0 <.LBB0_33>:
    800011d0:	00024617          	auipc	a2,0x24
    800011d4:	f0860613          	addi	a2,a2,-248 # 800250d8 <.L__unnamed_2>
    800011d8:	02400593          	li	a1,36
    800011dc:	00021097          	auipc	ra,0x21
    800011e0:	f20080e7          	jalr	-224(ra) # 800220fc <_ZN4core9panicking5panic17h153a4ce3c60ede6bE>
    800011e4:	0000                	unimp
    800011e6:	7526                	ld	a0,104(sp)
    800011e8:	4581                	li	a1,0
    }

    let mut copy_size: usize = 0;
    800011ea:	e52e                	sd	a1,136(sp)
    let pagetable = unsafe { &mut *page_table };
    800011ec:	f9aa                	sd	a0,240(sp)
    while copy_size < size {
    800011ee:	a009                	j	800011f0 <.LBB0_33+0x20>
    800011f0:	65a6                	ld	a1,72(sp)
    800011f2:	652a                	ld	a0,136(sp)
    800011f4:	00b56663          	bltu	a0,a1,80001200 <.LBB0_33+0x30>
    800011f8:	a009                	j	800011fa <.LBB0_33+0x2a>
    800011fa:	4501                	li	a0,0

        copy_size += PGSIZE;
        va.add_page();
    }

    Ok(())
    800011fc:	f8aa                	sd	a0,112(sp)
}
    800011fe:	a211                	j	80001302 <.LBB0_36+0x30>
                .pgt_translate(va) {
    80001200:	7526                	ld	a0,104(sp)
    80001202:	658a                	ld	a1,128(sp)
        match pagetable
    80001204:	00016097          	auipc	ra,0x16
    80001208:	dbe080e7          	jalr	-578(ra) # 80016fc2 <_ZN6kernel6memory7mapping10page_table9PageTable13pgt_translate17h8fe9f71b8d139103E>
    8000120c:	e92a                	sd	a0,144(sp)
    8000120e:	ed2e                	sd	a1,152(sp)
    80001210:	a009                	j	80001212 <.LBB0_33+0x42>
            Some(pa) => {
    80001212:	654a                	ld	a0,144(sp)
    80001214:	4581                	li	a1,0
    80001216:	00b50463          	beq	a0,a1,8000121e <.LBB0_34>
    8000121a:	a009                	j	8000121c <.LBB0_33+0x4c>
    8000121c:	a00d                	j	8000123e <.LBB0_35+0x18>

000000008000121e <.LBB0_34>:
                panic!("load_seg(): address should exist.");
    8000121e:	00024517          	auipc	a0,0x24
    80001222:	fa250513          	addi	a0,a0,-94 # 800251c0 <.L__unnamed_3>

0000000080001226 <.LBB0_35>:
    80001226:	00024617          	auipc	a2,0x24
    8000122a:	fc260613          	addi	a2,a2,-62 # 800251e8 <.L__unnamed_4>
    8000122e:	02100593          	li	a1,33
    80001232:	00021097          	auipc	ra,0x21
    80001236:	eca080e7          	jalr	-310(ra) # 800220fc <_ZN4core9panicking5panic17h153a4ce3c60ede6bE>
    8000123a:	0000                	unimp
        match pagetable
    8000123c:	0000                	unimp
            Some(pa) => {
    8000123e:	6526                	ld	a0,72(sp)
    80001240:	65ea                	ld	a1,152(sp)
    80001242:	f12e                	sd	a1,160(sp)
                if size - copy_size < PGSIZE {
    80001244:	65aa                	ld	a1,136(sp)
    80001246:	40b505b3          	sub	a1,a0,a1
    8000124a:	fc2e                	sd	a1,56(sp)
    8000124c:	0cb56063          	bltu	a0,a1,8000130c <.LBB0_37>
    80001250:	a009                	j	80001252 <.LBB0_35+0x2c>
    80001252:	7562                	ld	a0,56(sp)
    80001254:	8131                	srli	a0,a0,0xc
    80001256:	4581                	li	a1,0
    80001258:	00b51b63          	bne	a0,a1,8000126e <.LBB0_35+0x48>
    8000125c:	a009                	j	8000125e <.LBB0_35+0x38>
                    count = size - copy_size;
    8000125e:	6526                	ld	a0,72(sp)
    80001260:	65aa                	ld	a1,136(sp)
    80001262:	40b505b3          	sub	a1,a0,a1
    80001266:	f82e                	sd	a1,48(sp)
    80001268:	0cb56163          	bltu	a0,a1,8000132a <.LBB0_39>
    8000126c:	a021                	j	80001274 <.LBB0_35+0x4e>
    8000126e:	6505                	lui	a0,0x1
                    count = PGSIZE;
    80001270:	f52a                	sd	a0,168(sp)
                if size - copy_size < PGSIZE {
    80001272:	a021                	j	8000127a <.LBB0_35+0x54>
                    count = size - copy_size;
    80001274:	7542                	ld	a0,48(sp)
    80001276:	f52a                	sd	a0,168(sp)
                if size - copy_size < PGSIZE {
    80001278:	a009                	j	8000127a <.LBB0_35+0x54>
                if inode_data.read(
    8000127a:	6566                	ld	a0,88(sp)
    8000127c:	0001c097          	auipc	ra,0x1c
    80001280:	298080e7          	jalr	664(ra) # 8001d514 <_ZN95_$LT$kernel..lock..sleeplock..SleepLockGuard$LT$T$GT$$u20$as$u20$core..ops..deref..DerefMut$GT$9deref_mut17hc2f7575c00bf7e95E>
    80001284:	f42a                	sd	a0,40(sp)
    80001286:	a009                	j	80001288 <.LBB0_35+0x62>
    80001288:	1108                	addi	a0,sp,160
                    pa.as_usize(), 
    8000128a:	00010097          	auipc	ra,0x10
    8000128e:	27c080e7          	jalr	636(ra) # 80011506 <_ZN90_$LT$kernel..memory..address..PhysicalAddress$u20$as$u20$kernel..memory..address..Addr$GT$8as_usize17hea2eecdb80a1a2b2E>
    80001292:	f02a                	sd	a0,32(sp)
    80001294:	a009                	j	80001296 <.LBB0_35+0x70>
                    (offset + copy_size) as u32, 
    80001296:	65c6                	ld	a1,80(sp)
    80001298:	652a                	ld	a0,136(sp)
    8000129a:	952e                	add	a0,a0,a1
    8000129c:	ec2a                	sd	a0,24(sp)
    8000129e:	0ab56563          	bltu	a0,a1,80001348 <.LBB0_41>
    800012a2:	a009                	j	800012a4 <.LBB0_35+0x7e>
                    count as u32
    800012a4:	6762                	ld	a4,24(sp)
    800012a6:	7682                	ld	a3,32(sp)
    800012a8:	75a2                	ld	a1,40(sp)
    800012aa:	77aa                	ld	a5,168(sp)
    800012ac:	1908                	addi	a0,sp,176
    800012ae:	4601                	li	a2,0
                if inode_data.read(
    800012b0:	00019097          	auipc	ra,0x19
    800012b4:	e60080e7          	jalr	-416(ra) # 8001a110 <_ZN6kernel2fs5inode9InodeData4read17h2d02dc0e430e4837E>
    800012b8:	a009                	j	800012ba <.LBB0_35+0x94>
    800012ba:	1908                	addi	a0,sp,176
    800012bc:	0000c097          	auipc	ra,0xc
    800012c0:	a18080e7          	jalr	-1512(ra) # 8000ccd4 <_ZN4core6result19Result$LT$T$C$E$GT$6is_err17he593c7735b347060E>
    800012c4:	e82a                	sd	a0,16(sp)
    800012c6:	a009                	j	800012c8 <.LBB0_35+0xa2>
    800012c8:	6542                	ld	a0,16(sp)
    800012ca:	4581                	li	a1,0
    800012cc:	00b50b63          	beq	a0,a1,800012e2 <.LBB0_36+0x10>
    800012d0:	a009                	j	800012d2 <.LBB0_36>

00000000800012d2 <.LBB0_36>:
                    return Err("load_seg: Fail to read inode")
    800012d2:	00024517          	auipc	a0,0x24
    800012d6:	eba50513          	addi	a0,a0,-326 # 8002518c <.L__unnamed_5>
    800012da:	f8aa                	sd	a0,112(sp)
    800012dc:	4571                	li	a0,28
    800012de:	fcaa                	sd	a0,120(sp)
}
    800012e0:	a00d                	j	80001302 <.LBB0_36+0x30>
        copy_size += PGSIZE;
    800012e2:	65aa                	ld	a1,136(sp)
    800012e4:	6505                	lui	a0,0x1
    800012e6:	952e                	add	a0,a0,a1
    800012e8:	e42a                	sd	a0,8(sp)
    800012ea:	06b56d63          	bltu	a0,a1,80001364 <.LBB0_43>
    800012ee:	a009                	j	800012f0 <.LBB0_36+0x1e>
    800012f0:	6522                	ld	a0,8(sp)
    800012f2:	e52a                	sd	a0,136(sp)
    800012f4:	0108                	addi	a0,sp,128
        va.add_page();
    800012f6:	00003097          	auipc	ra,0x3
    800012fa:	73e080e7          	jalr	1854(ra) # 80004a34 <_ZN6kernel6memory7address4Addr8add_page17hda9f7615eed2e36aE>
    800012fe:	a009                	j	80001300 <.LBB0_36+0x2e>
    while copy_size < size {
    80001300:	bdc5                	j	800011f0 <.LBB0_33+0x20>
}
    80001302:	7546                	ld	a0,112(sp)
    80001304:	75e6                	ld	a1,120(sp)
    80001306:	70ee                	ld	ra,248(sp)
    80001308:	6111                	addi	sp,sp,256
    8000130a:	8082                	ret

000000008000130c <.LBB0_37>:
                if size - copy_size < PGSIZE {
    8000130c:	00024517          	auipc	a0,0x24
    80001310:	e0450513          	addi	a0,a0,-508 # 80025110 <str.0>

0000000080001314 <.LBB0_38>:
    80001314:	00024617          	auipc	a2,0x24
    80001318:	ddc60613          	addi	a2,a2,-548 # 800250f0 <.L__unnamed_6>
    8000131c:	02100593          	li	a1,33
    80001320:	00021097          	auipc	ra,0x21
    80001324:	ddc080e7          	jalr	-548(ra) # 800220fc <_ZN4core9panicking5panic17h153a4ce3c60ede6bE>
	...

000000008000132a <.LBB0_39>:
                    count = size - copy_size;
    8000132a:	00024517          	auipc	a0,0x24
    8000132e:	de650513          	addi	a0,a0,-538 # 80025110 <str.0>

0000000080001332 <.LBB0_40>:
    80001332:	00024617          	auipc	a2,0x24
    80001336:	e0660613          	addi	a2,a2,-506 # 80025138 <.L__unnamed_7>
    8000133a:	02100593          	li	a1,33
    8000133e:	00021097          	auipc	ra,0x21
    80001342:	dbe080e7          	jalr	-578(ra) # 800220fc <_ZN4core9panicking5panic17h153a4ce3c60ede6bE>
	...

0000000080001348 <.LBB0_41>:
                    (offset + copy_size) as u32, 
    80001348:	00024517          	auipc	a0,0x24
    8000134c:	e2850513          	addi	a0,a0,-472 # 80025170 <str.1>

0000000080001350 <.LBB0_42>:
    80001350:	00024617          	auipc	a2,0x24
    80001354:	e0060613          	addi	a2,a2,-512 # 80025150 <.L__unnamed_8>
    80001358:	45f1                	li	a1,28
    8000135a:	00021097          	auipc	ra,0x21
    8000135e:	da2080e7          	jalr	-606(ra) # 800220fc <_ZN4core9panicking5panic17h153a4ce3c60ede6bE>
	...

0000000080001364 <.LBB0_43>:
        copy_size += PGSIZE;
    80001364:	00024517          	auipc	a0,0x24
    80001368:	e0c50513          	addi	a0,a0,-500 # 80025170 <str.1>

000000008000136c <.LBB0_44>:
    8000136c:	00024617          	auipc	a2,0x24
    80001370:	e3c60613          	addi	a2,a2,-452 # 800251a8 <.L__unnamed_9>
    80001374:	45f1                	li	a1,28
    80001376:	00021097          	auipc	ra,0x21
    8000137a:	d86080e7          	jalr	-634(ra) # 800220fc <_ZN4core9panicking5panic17h153a4ce3c60ede6bE>
	...

Disassembly of section .text._ZN6kernel7process3elf4exec17h6cecf459cb29fe26E:

0000000080001380 <_ZN6kernel7process3elf4exec17h6cecf459cb29fe26E>:


pub unsafe fn exec(
    80001380:	9f010113          	addi	sp,sp,-1552
    80001384:	60113423          	sd	ra,1544(sp)
    80001388:	28e13023          	sd	a4,640(sp)
    8000138c:	28d13423          	sd	a3,648(sp)
    80001390:	28c13823          	sd	a2,656(sp)
    80001394:	28b13c23          	sd	a1,664(sp)
    80001398:	2aa13023          	sd	a0,672(sp)
    8000139c:	54b13823          	sd	a1,1360(sp)
    800013a0:	54c13c23          	sd	a2,1368(sp)
    800013a4:	56d13023          	sd	a3,1376(sp)
    800013a8:	56e13423          	sd	a4,1384(sp)
    800013ac:	4501                	li	a0,0
    path: &str, 
    argv: &[*const u8]
) -> Result<usize, &'static str> {
    let elf = Box::<ElfHeader>::new_zeroed().assume_init();
    800013ae:	54a107a3          	sb	a0,1359(sp)
    800013b2:	54a10723          	sb	a0,1358(sp)
    800013b6:	0001a097          	auipc	ra,0x1a
    800013ba:	364080e7          	jalr	868(ra) # 8001b71a <_ZN5alloc5boxed12Box$LT$T$GT$10new_zeroed17he41f9c30769fb517E>
    800013be:	2aa13423          	sd	a0,680(sp)
    800013c2:	a009                	j	800013c4 <_ZN6kernel7process3elf4exec17h6cecf459cb29fe26E+0x44>
    800013c4:	2a813503          	ld	a0,680(sp)
    800013c8:	0001b097          	auipc	ra,0x1b
    800013cc:	f00080e7          	jalr	-256(ra) # 8001c2c8 <_ZN5alloc5boxed60Box$LT$core..mem..maybe_uninit..MaybeUninit$LT$T$GT$$C$A$GT$11assume_init17h4ed953d8735ade7eE>
    800013d0:	2aa13823          	sd	a0,688(sp)
    800013d4:	a009                	j	800013d6 <_ZN6kernel7process3elf4exec17h6cecf459cb29fe26E+0x56>
    let ph = Box::<ProgHeader>::new_zeroed().assume_init();
    800013d6:	0001a097          	auipc	ra,0x1a
    800013da:	314080e7          	jalr	788(ra) # 8001b6ea <_ZN5alloc5boxed12Box$LT$T$GT$10new_zeroed17hb9a4ac65c8961d16E>
    800013de:	26a13c23          	sd	a0,632(sp)
    800013e2:	a009                	j	800013e4 <_ZN6kernel7process3elf4exec17h6cecf459cb29fe26E+0x64>
    800013e4:	27813503          	ld	a0,632(sp)
    800013e8:	0001b097          	auipc	ra,0x1b
    800013ec:	f0a080e7          	jalr	-246(ra) # 8001c2f2 <_ZN5alloc5boxed60Box$LT$core..mem..maybe_uninit..MaybeUninit$LT$T$GT$$C$A$GT$11assume_init17hef567e32e2b3ffa4E>
    800013f0:	2aa13c23          	sd	a0,696(sp)
    800013f4:	a009                	j	800013f6 <_ZN6kernel7process3elf4exec17h6cecf459cb29fe26E+0x76>
    800013f6:	4581                	li	a1,0
    // let mut page_table: *mut PageTable;
    let mut size = 0;
    800013f8:	2cb13023          	sd	a1,704(sp)
    800013fc:	0d88                	addi	a0,sp,720
    800013fe:	10000613          	li	a2,256
    let p: &mut task_struct;
    let mut sp: usize;
    let stack_base: usize;
    let mut user_stack: [usize; MAXARG] = [0;MAXARG];
    80001402:	00024097          	auipc	ra,0x24
    80001406:	c8a080e7          	jalr	-886(ra) # 8002508c <memset>

000000008000140a <.LBB1_209>:
    let inode: Inode;

    LOG.begin_op();
    8000140a:	00058517          	auipc	a0,0x58
    8000140e:	25e50513          	addi	a0,a0,606 # 80059668 <_ZN6kernel2fs3log3LOG17h2c1d1dbdf3a7e402E>
    80001412:	00007097          	auipc	ra,0x7
    80001416:	7ea080e7          	jalr	2026(ra) # 80008bfc <_ZN6kernel2fs3log78_$LT$impl$u20$kernel..lock..spinlock..Spinlock$LT$kernel..fs..log..Log$GT$$GT$8begin_op17he5b49a48c716e372E>
    8000141a:	a009                	j	8000141c <.LBB1_209+0x12>
    8000141c:	29013503          	ld	a0,656(sp)
    80001420:	29813583          	ld	a1,664(sp)
    80001424:	5eb13423          	sd	a1,1512(sp)
    80001428:	5ea13823          	sd	a0,1520(sp)
    #[inline(always)]
    #[allow(unused_attributes)]
    #[rustc_allow_const_fn_unstable(const_fn_transmute)]
    pub const fn as_bytes(&self) -> &[u8] {
        // SAFETY: const sound because we transmute two types with the same layout
        unsafe { mem::transmute(self) }
    8000142c:	5eb13c23          	sd	a1,1528(sp)
    80001430:	60a13023          	sd	a0,1536(sp)

    // Get current inode by path
    inode = ICACHE.namei(path.as_bytes()).ok_or("Fail to find executable file")?;
    80001434:	26b13423          	sd	a1,616(sp)
    80001438:	26a13823          	sd	a0,624(sp)
    8000143c:	a009                	j	8000143e <.LBB1_209+0x34>
    8000143e:	27013683          	ld	a3,624(sp)
    80001442:	26813603          	ld	a2,616(sp)

0000000080001446 <.LBB1_210>:
    80001446:	00058597          	auipc	a1,0x58
    8000144a:	2ca58593          	addi	a1,a1,714 # 80059710 <_ZN6kernel2fs5inode6ICACHE17had1be8942ca79bf1E>
    8000144e:	42010513          	addi	a0,sp,1056
    80001452:	00018097          	auipc	ra,0x18
    80001456:	e6a080e7          	jalr	-406(ra) # 800192bc <_ZN6kernel2fs5inode10InodeCache5namei17hc269c6a9eecf1991E>
    8000145a:	a009                	j	8000145c <.LBB1_211>

000000008000145c <.LBB1_211>:
    8000145c:	00024617          	auipc	a2,0x24
    80001460:	da460613          	addi	a2,a2,-604 # 80025200 <.L__unnamed_10>
    80001464:	40810513          	addi	a0,sp,1032
    80001468:	42010593          	addi	a1,sp,1056
    8000146c:	46f1                	li	a3,28
    8000146e:	0000d097          	auipc	ra,0xd
    80001472:	456080e7          	jalr	1110(ra) # 8000e8c4 <_ZN4core6option15Option$LT$T$GT$5ok_or17hfc73591acc2890d8E>
    80001476:	a009                	j	80001478 <.LBB1_211+0x1c>
    80001478:	1f88                	addi	a0,sp,1008
    8000147a:	40810593          	addi	a1,sp,1032
    8000147e:	0000c097          	auipc	ra,0xc
    80001482:	ca6080e7          	jalr	-858(ra) # 8000d124 <_ZN73_$LT$core..result..Result$LT$T$C$E$GT$$u20$as$u20$core..ops..try..Try$GT$11into_result17h7e17d789c0860991E>
    80001486:	a009                	j	80001488 <.LBB1_211+0x2c>
    80001488:	3f013503          	ld	a0,1008(sp)
    8000148c:	4581                	li	a1,0
    8000148e:	00b50463          	beq	a0,a1,80001496 <.LBB1_211+0x3a>
    80001492:	a009                	j	80001494 <.LBB1_211+0x38>
    80001494:	a089                	j	800014d6 <.LBB1_211+0x7a>
    80001496:	40013583          	ld	a1,1024(sp)
    8000149a:	44b13023          	sd	a1,1088(sp)
    8000149e:	3f813603          	ld	a2,1016(sp)
    800014a2:	42c13c23          	sd	a2,1080(sp)
    800014a6:	3ec13023          	sd	a2,992(sp)
    800014aa:	3eb13423          	sd	a1,1000(sp)
    800014ae:	4505                	li	a0,1
    800014b0:	54a107a3          	sb	a0,1359(sp)
    800014b4:	3cc13823          	sd	a2,976(sp)
    800014b8:	3cb13c23          	sd	a1,984(sp)

    // Get inode data by sleeplock
    let mut inode_guard = inode.lock();
    800014bc:	54a10723          	sb	a0,1358(sp)
    800014c0:	0f88                	addi	a0,sp,976
    800014c2:	0001a097          	auipc	ra,0x1a
    800014c6:	83e080e7          	jalr	-1986(ra) # 8001ad00 <_ZN6kernel2fs5inode5Inode4lock17he70970c593f751adE>
    800014ca:	44a13423          	sd	a0,1096(sp)
    800014ce:	44b13823          	sd	a1,1104(sp)
    800014d2:	a081                	j	80001512 <.LBB1_211+0xb6>
    inode = ICACHE.namei(path.as_bytes()).ok_or("Fail to find executable file")?;
    800014d4:	0000                	unimp
    800014d6:	3f813503          	ld	a0,1016(sp)
    800014da:	40013583          	ld	a1,1024(sp)
    800014de:	56a13823          	sd	a0,1392(sp)
    800014e2:	56b13c23          	sd	a1,1400(sp)
    800014e6:	0000a097          	auipc	ra,0xa
    800014ea:	4de080e7          	jalr	1246(ra) # 8000b9c4 <_ZN50_$LT$T$u20$as$u20$core..convert..From$LT$T$GT$$GT$4from17h6f3e3843c20d184aE>
    800014ee:	24a13c23          	sd	a0,600(sp)
    800014f2:	26b13023          	sd	a1,608(sp)
    800014f6:	a009                	j	800014f8 <.LBB1_211+0x9c>
    800014f8:	26013603          	ld	a2,608(sp)
    800014fc:	25813583          	ld	a1,600(sp)
    80001500:	2a013503          	ld	a0,672(sp)
    80001504:	0000c097          	auipc	ra,0xc
    80001508:	b00080e7          	jalr	-1280(ra) # 8000d004 <_ZN73_$LT$core..result..Result$LT$T$C$E$GT$$u20$as$u20$core..ops..try..Try$GT$10from_error17h4dd43adfe00292f6E>
    8000150c:	a009                	j	8000150e <.LBB1_211+0xb2>
#![no_std]
    8000150e:	3f90006f          	j	80002106 <.LBB1_239+0xe6>
    80001512:	44810513          	addi	a0,sp,1096
           
    // Check ELF header
    if inode_guard.read(
    80001516:	0001c097          	auipc	ra,0x1c
    8000151a:	ffe080e7          	jalr	-2(ra) # 8001d514 <_ZN95_$LT$kernel..lock..sleeplock..SleepLockGuard$LT$T$GT$$u20$as$u20$core..ops..deref..DerefMut$GT$9deref_mut17hc2f7575c00bf7e95E>
    8000151e:	24a13823          	sd	a0,592(sp)
    80001522:	a009                	j	80001524 <.LBB1_211+0xc8>
        false, 
        &*elf as *const ElfHeader as usize, 
    80001524:	2b013503          	ld	a0,688(sp)
        0, 
        size_of::<ElfHeader>() as u32
    80001528:	24a13423          	sd	a0,584(sp)
    8000152c:	a009                	j	8000152e <.LBB1_211+0xd2>
    if inode_guard.read(
    8000152e:	24813683          	ld	a3,584(sp)
    80001532:	25013583          	ld	a1,592(sp)
    80001536:	45810513          	addi	a0,sp,1112
    8000153a:	4701                	li	a4,0
    8000153c:	04000793          	li	a5,64
    80001540:	863a                	mv	a2,a4
    80001542:	00019097          	auipc	ra,0x19
    80001546:	bce080e7          	jalr	-1074(ra) # 8001a110 <_ZN6kernel2fs5inode9InodeData4read17h2d02dc0e430e4837E>
    8000154a:	a009                	j	8000154c <.LBB1_211+0xf0>
    8000154c:	45810513          	addi	a0,sp,1112
    80001550:	0000b097          	auipc	ra,0xb
    80001554:	784080e7          	jalr	1924(ra) # 8000ccd4 <_ZN4core6result19Result$LT$T$C$E$GT$6is_err17he593c7735b347060E>
    80001558:	24a13023          	sd	a0,576(sp)
    8000155c:	a009                	j	8000155e <.LBB1_211+0x102>
    8000155e:	24013503          	ld	a0,576(sp)
    80001562:	4581                	li	a1,0
    80001564:	00b50f63          	beq	a0,a1,80001582 <.LBB1_211+0x126>
    80001568:	a009                	j	8000156a <.LBB1_211+0x10e>
    8000156a:	4501                	li	a0,0
    ).is_err() {
        drop(inode_guard);
    8000156c:	54a10723          	sb	a0,1358(sp)
    80001570:	44813503          	ld	a0,1096(sp)
    80001574:	45013583          	ld	a1,1104(sp)
    80001578:	0001c097          	auipc	ra,0x1c
    8000157c:	93a080e7          	jalr	-1734(ra) # 8001ceb2 <_ZN4core3mem4drop17h3f96085e4daee3c2E>
    80001580:	a819                	j	80001596 <.LBB1_212>
        LOG.end_op();
        return Err("exec: Fail to read elf header.")
    }

    // println!("[Debug] 检查魔数");
    if elf.magic != ELF_MAGIC {
    80001582:	2b013503          	ld	a0,688(sp)
    80001586:	4108                	lw	a0,0(a0)
    80001588:	464c45b7          	lui	a1,0x464c4
    8000158c:	57f5859b          	addiw	a1,a1,1407
    80001590:	02b51963          	bne	a0,a1,800015c2 <.LBB1_213+0x16>
    80001594:	a099                	j	800015da <.LBB1_214>

0000000080001596 <.LBB1_212>:
        LOG.end_op();
    80001596:	00058517          	auipc	a0,0x58
    8000159a:	0d250513          	addi	a0,a0,210 # 80059668 <_ZN6kernel2fs3log3LOG17h2c1d1dbdf3a7e402E>
    8000159e:	00008097          	auipc	ra,0x8
    800015a2:	c44080e7          	jalr	-956(ra) # 800091e2 <_ZN6kernel2fs3log78_$LT$impl$u20$kernel..lock..spinlock..Spinlock$LT$kernel..fs..log..Log$GT$$GT$6end_op17h345c15f0248f080bE>
    800015a6:	a009                	j	800015a8 <.LBB1_212+0x12>
        return Err("exec: Fail to read elf header.")
    800015a8:	2a013583          	ld	a1,672(sp)

00000000800015ac <.LBB1_213>:
    800015ac:	00024517          	auipc	a0,0x24
    800015b0:	c7050513          	addi	a0,a0,-912 # 8002521c <.L__unnamed_11>
    800015b4:	e588                	sd	a0,8(a1)
    800015b6:	4579                	li	a0,30
    800015b8:	e988                	sd	a0,16(a1)
    800015ba:	4505                	li	a0,1
    800015bc:	e188                	sd	a0,0(a1)
    800015be:	3330006f          	j	800020f0 <.LBB1_239+0xd0>
    800015c2:	4501                	li	a0,0
        // println!("[Debug] 魔数错误, 为0x{:x}, 应为0x{:x}", elf.magic, ELF_MAGIC);
        drop(inode_guard);
    800015c4:	54a10723          	sb	a0,1358(sp)
    800015c8:	44813503          	ld	a0,1096(sp)
    800015cc:	45013583          	ld	a1,1104(sp)
    800015d0:	0001c097          	auipc	ra,0x1c
    800015d4:	8e2080e7          	jalr	-1822(ra) # 8001ceb2 <_ZN4core3mem4drop17h3f96085e4daee3c2E>
    800015d8:	a821                	j	800015f0 <.LBB1_215>

00000000800015da <.LBB1_214>:
        LOG.end_op();
        return Err("exec: Elf magic number is wrong.")
    }

    let my_proc = CPU_MANAGER.myproc().unwrap();
    800015da:	00063517          	auipc	a0,0x63
    800015de:	b6650513          	addi	a0,a0,-1178 # 80064140 <_ZN6kernel7process3cpu11CPU_MANAGER17h1e19e3b88580bd28E>
    800015e2:	00010097          	auipc	ra,0x10
    800015e6:	448080e7          	jalr	1096(ra) # 80011a2a <_ZN6kernel7process3cpu10CPUManager6myproc17ha7f4be725669dfb9E>
    800015ea:	22a13c23          	sd	a0,568(sp)
    800015ee:	a805                	j	8000161e <.LBB1_216+0x18>

00000000800015f0 <.LBB1_215>:
        LOG.end_op();
    800015f0:	00058517          	auipc	a0,0x58
    800015f4:	07850513          	addi	a0,a0,120 # 80059668 <_ZN6kernel2fs3log3LOG17h2c1d1dbdf3a7e402E>
    800015f8:	00008097          	auipc	ra,0x8
    800015fc:	bea080e7          	jalr	-1046(ra) # 800091e2 <_ZN6kernel2fs3log78_$LT$impl$u20$kernel..lock..spinlock..Spinlock$LT$kernel..fs..log..Log$GT$$GT$6end_op17h345c15f0248f080bE>
    80001600:	a009                	j	80001602 <.LBB1_215+0x12>
        return Err("exec: Elf magic number is wrong.")
    80001602:	2a013583          	ld	a1,672(sp)

0000000080001606 <.LBB1_216>:
    80001606:	00024517          	auipc	a0,0x24
    8000160a:	c5450513          	addi	a0,a0,-940 # 8002525a <.L__unnamed_11+0x3e>
    8000160e:	e588                	sd	a0,8(a1)
    80001610:	02000513          	li	a0,32
    80001614:	e988                	sd	a0,16(a1)
    80001616:	4505                	li	a0,1
    80001618:	e188                	sd	a0,0(a1)
    8000161a:	2d70006f          	j	800020f0 <.LBB1_239+0xd0>
    let my_proc = CPU_MANAGER.myproc().unwrap();
    8000161e:	23813503          	ld	a0,568(sp)

0000000080001622 <.LBB1_217>:
    80001622:	00024597          	auipc	a1,0x24
    80001626:	dbe58593          	addi	a1,a1,-578 # 800253e0 <.L__unnamed_13>
    8000162a:	0000d097          	auipc	ra,0xd
    8000162e:	692080e7          	jalr	1682(ra) # 8000ecbc <_ZN4core6option15Option$LT$T$GT$6unwrap17h81f0c84c54a80648E>
    80001632:	85aa                	mv	a1,a0
    80001634:	22b13823          	sd	a1,560(sp)
    80001638:	58a13023          	sd	a0,1408(sp)
    8000163c:	a009                	j	8000163e <.LBB1_217+0x1c>
    let pagetable = my_proc.proc_pagetable();
    8000163e:	23013503          	ld	a0,560(sp)
    80001642:	00014097          	auipc	ra,0x14
    80001646:	742080e7          	jalr	1858(ra) # 80015d84 <_ZN6kernel7process7process11task_struct14proc_pagetable17h014e9ba7c74d9318E>
    8000164a:	85aa                	mv	a1,a0
    8000164c:	22b13423          	sd	a1,552(sp)
    80001650:	58a13423          	sd	a0,1416(sp)
    80001654:	a009                	j	80001656 <.LBB1_217+0x34>
    let page_table = &mut *pagetable;
    80001656:	22813503          	ld	a0,552(sp)
    8000165a:	58a13823          	sd	a0,1424(sp)
            
        
        let ph_size = size_of::<ProgHeader>() as u32;
    8000165e:	a009                	j	80001660 <.LBB1_217+0x3e>
    80001660:	03800513          	li	a0,56
    80001664:	20a13823          	sd	a0,528(sp)
    80001668:	58a12c23          	sw	a0,1432(sp)
        // Load program into memeory. 
        let mut off = elf.phoff;
    8000166c:	2b013503          	ld	a0,688(sp)
    80001670:	710c                	ld	a1,32(a0)
    80001672:	46b13823          	sd	a1,1136(sp)
        for _ in 0..elf.phnum {
    80001676:	03851583          	lh	a1,56(a0)
    8000167a:	4501                	li	a0,0
    8000167c:	46a11c23          	sh	a0,1144(sp)
    80001680:	46b11d23          	sh	a1,1146(sp)
    80001684:	0000a097          	auipc	ra,0xa
    80001688:	322080e7          	jalr	802(ra) # 8000b9a6 <_ZN63_$LT$I$u20$as$u20$core..iter..traits..collect..IntoIterator$GT$9into_iter17he12a3ecdd35a2d32E>
    8000168c:	20a13c23          	sd	a0,536(sp)
    80001690:	22b13023          	sd	a1,544(sp)
    80001694:	a009                	j	80001696 <.LBB1_217+0x74>
    80001696:	22013503          	ld	a0,544(sp)
    8000169a:	21813583          	ld	a1,536(sp)
    8000169e:	48b11023          	sh	a1,1152(sp)
    800016a2:	48a11123          	sh	a0,1154(sp)
    800016a6:	a009                	j	800016a8 <.LBB1_217+0x86>
    800016a8:	48010513          	addi	a0,sp,1152
    800016ac:	0000a097          	auipc	ra,0xa
    800016b0:	108080e7          	jalr	264(ra) # 8000b7b4 <_ZN4core4iter5range101_$LT$impl$u20$core..iter..traits..iterator..Iterator$u20$for$u20$core..ops..range..Range$LT$A$GT$$GT$4next17h1063a80d56ceadabE>
    800016b4:	48a11423          	sh	a0,1160(sp)
    800016b8:	48b11523          	sh	a1,1162(sp)
    800016bc:	a009                	j	800016be <.LBB1_217+0x9c>
    800016be:	48815503          	lhu	a0,1160(sp)
    800016c2:	4581                	li	a1,0
    800016c4:	00b50463          	beq	a0,a1,800016cc <.LBB1_217+0xaa>
    800016c8:	a009                	j	800016ca <.LBB1_217+0xa8>
    800016ca:	a831                	j	800016e6 <.LBB1_217+0xc4>
    800016cc:	4501                	li	a0,0
            }
            off += size_of::<ProgHeader>();
        }
        // println!("[Debug] 完成加载程序");

        drop(inode_guard);
    800016ce:	54a10723          	sb	a0,1358(sp)
    800016d2:	44813503          	ld	a0,1096(sp)
    800016d6:	45013583          	ld	a1,1104(sp)
    800016da:	0001b097          	auipc	ra,0x1b
    800016de:	7d8080e7          	jalr	2008(ra) # 8001ceb2 <_ZN4core3mem4drop17h3f96085e4daee3c2E>
    800016e2:	ae81                	j	80001a32 <.LBB1_230>
        for _ in 0..elf.phnum {
    800016e4:	0000                	unimp
    800016e6:	48a11503          	lh	a0,1162(sp)
    800016ea:	58a11e23          	sh	a0,1436(sp)
    800016ee:	58a11f23          	sh	a0,1438(sp)
    800016f2:	44810513          	addi	a0,sp,1096
            if inode_guard.read(
    800016f6:	0001c097          	auipc	ra,0x1c
    800016fa:	e1e080e7          	jalr	-482(ra) # 8001d514 <_ZN95_$LT$kernel..lock..sleeplock..SleepLockGuard$LT$T$GT$$u20$as$u20$core..ops..deref..DerefMut$GT$9deref_mut17hc2f7575c00bf7e95E>
    800016fe:	20a13423          	sd	a0,520(sp)
    80001702:	a009                	j	80001704 <.LBB1_217+0xe2>
                &*ph as *const ProgHeader as usize, 
    80001704:	21013783          	ld	a5,528(sp)
    80001708:	20813583          	ld	a1,520(sp)
    8000170c:	2b813683          	ld	a3,696(sp)
                off as u32, 
    80001710:	47013703          	ld	a4,1136(sp)
    80001714:	49010513          	addi	a0,sp,1168
    80001718:	4601                	li	a2,0
            if inode_guard.read(
    8000171a:	00019097          	auipc	ra,0x19
    8000171e:	9f6080e7          	jalr	-1546(ra) # 8001a110 <_ZN6kernel2fs5inode9InodeData4read17h2d02dc0e430e4837E>
    80001722:	a009                	j	80001724 <.LBB1_217+0x102>
    80001724:	49010513          	addi	a0,sp,1168
    80001728:	0000b097          	auipc	ra,0xb
    8000172c:	48c080e7          	jalr	1164(ra) # 8000cbb4 <_ZN4core6result19Result$LT$T$C$E$GT$5is_ok17h0d49413fcec9dcc1E>
    80001730:	20a13023          	sd	a0,512(sp)
    80001734:	a009                	j	80001736 <.LBB1_217+0x114>
    80001736:	20013503          	ld	a0,512(sp)
    8000173a:	4581                	li	a1,0
    8000173c:	00b50a63          	beq	a0,a1,80001750 <.LBB1_217+0x12e>
    80001740:	a009                	j	80001742 <.LBB1_217+0x120>
                if ph.prog_type != ELF_PROG_LOAD { continue; }
    80001742:	2b813503          	ld	a0,696(sp)
    80001746:	4108                	lw	a0,0(a0)
    80001748:	4585                	li	a1,1
    8000174a:	f4b51fe3          	bne	a0,a1,800016a8 <.LBB1_217+0x86>
    8000174e:	a801                	j	8000175e <.LBB1_217+0x13c>
                drop(page_table);
    80001750:	22813503          	ld	a0,552(sp)
    80001754:	0001b097          	auipc	ra,0x1b
    80001758:	7ee080e7          	jalr	2030(ra) # 8001cf42 <_ZN4core3mem4drop17ha184dbcd1a83d607E>
    8000175c:	acb5                	j	800019d8 <.LBB1_227+0x14>
                if ph.mem_size < ph.file_size {
    8000175e:	2b813583          	ld	a1,696(sp)
    80001762:	7588                	ld	a0,40(a1)
    80001764:	718c                	ld	a1,32(a1)
    80001766:	00b57c63          	bgeu	a0,a1,8000177e <.LBB1_217+0x15c>
    8000176a:	a009                	j	8000176c <.LBB1_217+0x14a>
                    page_table.proc_free_pagetable(size);
    8000176c:	22813503          	ld	a0,552(sp)
    80001770:	2c013583          	ld	a1,704(sp)
    80001774:	00017097          	auipc	ra,0x17
    80001778:	9f4080e7          	jalr	-1548(ra) # 80018168 <_ZN6kernel6memory7mapping10page_table9PageTable19proc_free_pagetable17h67102aea540089c1E>
    8000177c:	a811                	j	80001790 <.LBB1_217+0x16e>
                if ph.vaddr + ph.mem_size < ph.vaddr {
    8000177e:	2b813503          	ld	a0,696(sp)
    80001782:	690c                	ld	a1,16(a0)
    80001784:	7508                	ld	a0,40(a0)
    80001786:	952e                	add	a0,a0,a1
    80001788:	ffaa                	sd	a0,504(sp)
    8000178a:	18b563e3          	bltu	a0,a1,80002110 <.LBB1_240>
    8000178e:	a0a1                	j	800017d6 <.LBB1_219+0x18>
    80001790:	4501                	li	a0,0
                    drop(inode_guard);
    80001792:	54a10723          	sb	a0,1358(sp)
    80001796:	44813503          	ld	a0,1096(sp)
    8000179a:	45013583          	ld	a1,1104(sp)
    8000179e:	0001b097          	auipc	ra,0x1b
    800017a2:	714080e7          	jalr	1812(ra) # 8001ceb2 <_ZN4core3mem4drop17h3f96085e4daee3c2E>
    800017a6:	a009                	j	800017a8 <.LBB1_218>

00000000800017a8 <.LBB1_218>:
                    LOG.end_op();
    800017a8:	00058517          	auipc	a0,0x58
    800017ac:	ec050513          	addi	a0,a0,-320 # 80059668 <_ZN6kernel2fs3log3LOG17h2c1d1dbdf3a7e402E>
    800017b0:	00008097          	auipc	ra,0x8
    800017b4:	a32080e7          	jalr	-1486(ra) # 800091e2 <_ZN6kernel2fs3log78_$LT$impl$u20$kernel..lock..spinlock..Spinlock$LT$kernel..fs..log..Log$GT$$GT$6end_op17h345c15f0248f080bE>
    800017b8:	a009                	j	800017ba <.LBB1_218+0x12>
                    return Err("exec: memory size is less than file size.")
    800017ba:	2a013583          	ld	a1,672(sp)

00000000800017be <.LBB1_219>:
    800017be:	00024517          	auipc	a0,0x24
    800017c2:	c3a50513          	addi	a0,a0,-966 # 800253f8 <.L__unnamed_14>
    800017c6:	e588                	sd	a0,8(a1)
    800017c8:	02900513          	li	a0,41
    800017cc:	e988                	sd	a0,16(a1)
    800017ce:	4505                	li	a0,1
    800017d0:	e188                	sd	a0,0(a1)
    800017d2:	11f0006f          	j	800020f0 <.LBB1_239+0xd0>
                if ph.vaddr + ph.mem_size < ph.vaddr {
    800017d6:	757e                	ld	a0,504(sp)
    800017d8:	2b813583          	ld	a1,696(sp)
    800017dc:	698c                	ld	a1,16(a1)
    800017de:	00b57c63          	bgeu	a0,a1,800017f6 <.LBB1_219+0x38>
    800017e2:	a009                	j	800017e4 <.LBB1_219+0x26>
                    page_table.proc_free_pagetable(size);
    800017e4:	22813503          	ld	a0,552(sp)
    800017e8:	2c013583          	ld	a1,704(sp)
    800017ec:	00017097          	auipc	ra,0x17
    800017f0:	97c080e7          	jalr	-1668(ra) # 80018168 <_ZN6kernel6memory7mapping10page_table9PageTable19proc_free_pagetable17h67102aea540089c1E>
    800017f4:	a829                	j	8000180e <.LBB1_219+0x50>
                .uvm_alloc(size, ph.vaddr + ph.mem_size)
    800017f6:	2c013503          	ld	a0,704(sp)
    800017fa:	f7aa                	sd	a0,488(sp)
    800017fc:	2b813503          	ld	a0,696(sp)
    80001800:	690c                	ld	a1,16(a0)
    80001802:	7508                	ld	a0,40(a0)
    80001804:	952e                	add	a0,a0,a1
    80001806:	fbaa                	sd	a0,496(sp)
    80001808:	12b562e3          	bltu	a0,a1,8000212c <.LBB1_242>
    8000180c:	a099                	j	80001852 <.LBB1_221+0x16>
    8000180e:	4501                	li	a0,0
                    drop(inode_guard);
    80001810:	54a10723          	sb	a0,1358(sp)
    80001814:	44813503          	ld	a0,1096(sp)
    80001818:	45013583          	ld	a1,1104(sp)
    8000181c:	0001b097          	auipc	ra,0x1b
    80001820:	696080e7          	jalr	1686(ra) # 8001ceb2 <_ZN4core3mem4drop17h3f96085e4daee3c2E>
    80001824:	a009                	j	80001826 <.LBB1_220>

0000000080001826 <.LBB1_220>:
                    LOG.end_op();
    80001826:	00058517          	auipc	a0,0x58
    8000182a:	e4250513          	addi	a0,a0,-446 # 80059668 <_ZN6kernel2fs3log3LOG17h2c1d1dbdf3a7e402E>
    8000182e:	00008097          	auipc	ra,0x8
    80001832:	9b4080e7          	jalr	-1612(ra) # 800091e2 <_ZN6kernel2fs3log78_$LT$impl$u20$kernel..lock..spinlock..Spinlock$LT$kernel..fs..log..Log$GT$$GT$6end_op17h345c15f0248f080bE>
    80001836:	a009                	j	80001838 <.LBB1_220+0x12>
                    return Err("exec: vaddr + mem_size < vaddr")
    80001838:	2a013583          	ld	a1,672(sp)

000000008000183c <.LBB1_221>:
    8000183c:	00024517          	auipc	a0,0x24
    80001840:	c0450513          	addi	a0,a0,-1020 # 80025440 <.L__unnamed_15>
    80001844:	e588                	sd	a0,8(a1)
    80001846:	4579                	li	a0,30
    80001848:	e988                	sd	a0,16(a1)
    8000184a:	4505                	li	a0,1
    8000184c:	e188                	sd	a0,0(a1)
    8000184e:	0a30006f          	j	800020f0 <.LBB1_239+0xd0>
                match page_table
    80001852:	765e                	ld	a2,496(sp)
    80001854:	75be                	ld	a1,488(sp)
    80001856:	22813503          	ld	a0,552(sp)
    8000185a:	00016097          	auipc	ra,0x16
    8000185e:	b92080e7          	jalr	-1134(ra) # 800173ec <_ZN6kernel6memory7mapping10page_table9PageTable9uvm_alloc17h600a2c8e8dc8349aE>
    80001862:	4aa13c23          	sd	a0,1208(sp)
    80001866:	4cb13023          	sd	a1,1216(sp)
    8000186a:	a009                	j	8000186c <.LBB1_221+0x30>
    8000186c:	4b810513          	addi	a0,sp,1208
    80001870:	0000d097          	auipc	ra,0xd
    80001874:	d62080e7          	jalr	-670(ra) # 8000e5d2 <_ZN4core6option15Option$LT$T$GT$4take17h3f0477f04f3bf4c3E>
    80001878:	4aa13423          	sd	a0,1192(sp)
    8000187c:	4ab13823          	sd	a1,1200(sp)
    80001880:	a009                	j	80001882 <.LBB1_221+0x46>
                    None => {
    80001882:	4a813503          	ld	a0,1192(sp)
    80001886:	4581                	li	a1,0
    80001888:	02b50563          	beq	a0,a1,800018b2 <.LBB1_221+0x76>
    8000188c:	a009                	j	8000188e <.LBB1_221+0x52>
                    Some(new_size) => {
    8000188e:	4b013503          	ld	a0,1200(sp)
    80001892:	5aa13023          	sd	a0,1440(sp)
                        size = new_size;
    80001896:	2ca13023          	sd	a0,704(sp)
                if ph.vaddr % PGSIZE != 0 {
    8000189a:	2b813503          	ld	a0,696(sp)
    8000189e:	01055503          	lhu	a0,16(a0)
    800018a2:	6585                	lui	a1,0x1
    800018a4:	35fd                	addiw	a1,a1,-1
    800018a6:	8d6d                	and	a0,a0,a1
    800018a8:	4581                	li	a1,0
    800018aa:	06b50763          	beq	a0,a1,80001918 <.LBB1_223+0x26>
    800018ae:	a8a1                	j	80001906 <.LBB1_223+0x14>
                match page_table
    800018b0:	0000                	unimp
                        page_table.proc_free_pagetable(size);
    800018b2:	22813503          	ld	a0,552(sp)
    800018b6:	2c013583          	ld	a1,704(sp)
    800018ba:	00017097          	auipc	ra,0x17
    800018be:	8ae080e7          	jalr	-1874(ra) # 80018168 <_ZN6kernel6memory7mapping10page_table9PageTable19proc_free_pagetable17h67102aea540089c1E>
    800018c2:	a009                	j	800018c4 <.LBB1_221+0x88>
    800018c4:	4501                	li	a0,0
                        drop(inode_guard);
    800018c6:	54a10723          	sb	a0,1358(sp)
    800018ca:	44813503          	ld	a0,1096(sp)
    800018ce:	45013583          	ld	a1,1104(sp)
    800018d2:	0001b097          	auipc	ra,0x1b
    800018d6:	5e0080e7          	jalr	1504(ra) # 8001ceb2 <_ZN4core3mem4drop17h3f96085e4daee3c2E>
    800018da:	a009                	j	800018dc <.LBB1_222>

00000000800018dc <.LBB1_222>:
                        LOG.end_op();
    800018dc:	00058517          	auipc	a0,0x58
    800018e0:	d8c50513          	addi	a0,a0,-628 # 80059668 <_ZN6kernel2fs3log3LOG17h2c1d1dbdf3a7e402E>
    800018e4:	00008097          	auipc	ra,0x8
    800018e8:	8fe080e7          	jalr	-1794(ra) # 800091e2 <_ZN6kernel2fs3log78_$LT$impl$u20$kernel..lock..spinlock..Spinlock$LT$kernel..fs..log..Log$GT$$GT$6end_op17h345c15f0248f080bE>
    800018ec:	a009                	j	800018ee <.LBB1_222+0x12>
                        return Err("exec: Fail to uvmalloc.")
    800018ee:	2a013583          	ld	a1,672(sp)

00000000800018f2 <.LBB1_223>:
    800018f2:	00024517          	auipc	a0,0x24
    800018f6:	bf650513          	addi	a0,a0,-1034 # 800254e8 <.L__unnamed_16>
    800018fa:	e588                	sd	a0,8(a1)
    800018fc:	455d                	li	a0,23
    800018fe:	e988                	sd	a0,16(a1)
    80001900:	4505                	li	a0,1
    80001902:	e188                	sd	a0,0(a1)
    80001904:	a7f5                	j	800020f0 <.LBB1_239+0xd0>
                    page_table.proc_free_pagetable(size);
    80001906:	22813503          	ld	a0,552(sp)
    8000190a:	2c013583          	ld	a1,704(sp)
    8000190e:	00017097          	auipc	ra,0x17
    80001912:	85a080e7          	jalr	-1958(ra) # 80018168 <_ZN6kernel6memory7mapping10page_table9PageTable19proc_free_pagetable17h67102aea540089c1E>
    80001916:	a01d                	j	8000193c <.LBB1_224>
                    ph.vaddr, 
    80001918:	22813503          	ld	a0,552(sp)
    8000191c:	2b813603          	ld	a2,696(sp)
    80001920:	6a0c                	ld	a1,16(a2)
                    ph.off, 
    80001922:	6614                	ld	a3,8(a2)
                    ph.file_size
    80001924:	7218                	ld	a4,32(a2)
    80001926:	44810613          	addi	a2,sp,1096
                if load_seg(
    8000192a:	00000097          	auipc	ra,0x0
    8000192e:	862080e7          	jalr	-1950(ra) # 8000118c <_ZN6kernel7process3elf8load_seg17h8e22665aca7680efE>
    80001932:	4ca13423          	sd	a0,1224(sp)
    80001936:	4cb13823          	sd	a1,1232(sp)
    8000193a:	a03d                	j	80001968 <.LBB1_225+0x16>

000000008000193c <.LBB1_224>:
                    LOG.end_op();
    8000193c:	00058517          	auipc	a0,0x58
    80001940:	d2c50513          	addi	a0,a0,-724 # 80059668 <_ZN6kernel2fs3log3LOG17h2c1d1dbdf3a7e402E>
    80001944:	00008097          	auipc	ra,0x8
    80001948:	89e080e7          	jalr	-1890(ra) # 800091e2 <_ZN6kernel2fs3log78_$LT$impl$u20$kernel..lock..spinlock..Spinlock$LT$kernel..fs..log..Log$GT$$GT$6end_op17h345c15f0248f080bE>
    8000194c:	a009                	j	8000194e <.LBB1_224+0x12>
                    return Err("exec: Programe Header must be integer multiple of PGSIZE. ")
    8000194e:	2a013583          	ld	a1,672(sp)

0000000080001952 <.LBB1_225>:
    80001952:	00024517          	auipc	a0,0x24
    80001956:	b2650513          	addi	a0,a0,-1242 # 80025478 <.L__unnamed_17>
    8000195a:	e588                	sd	a0,8(a1)
    8000195c:	03a00513          	li	a0,58
    80001960:	e988                	sd	a0,16(a1)
    80001962:	4505                	li	a0,1
    80001964:	e188                	sd	a0,0(a1)
    80001966:	a769                	j	800020f0 <.LBB1_239+0xd0>
    80001968:	4c810513          	addi	a0,sp,1224
                if load_seg(
    8000196c:	0000b097          	auipc	ra,0xb
    80001970:	34a080e7          	jalr	842(ra) # 8000ccb6 <_ZN4core6result19Result$LT$T$C$E$GT$6is_err17h304118d236359d80E>
    80001974:	f3aa                	sd	a0,480(sp)
    80001976:	a009                	j	80001978 <.LBB1_225+0x26>
    80001978:	751e                	ld	a0,480(sp)
    8000197a:	4581                	li	a1,0
    8000197c:	00b50c63          	beq	a0,a1,80001994 <.LBB1_225+0x42>
    80001980:	a009                	j	80001982 <.LBB1_225+0x30>
                    page_table.proc_free_pagetable(size);
    80001982:	22813503          	ld	a0,552(sp)
    80001986:	2c013583          	ld	a1,704(sp)
    8000198a:	00016097          	auipc	ra,0x16
    8000198e:	7de080e7          	jalr	2014(ra) # 80018168 <_ZN6kernel6memory7mapping10page_table9PageTable19proc_free_pagetable17h67102aea540089c1E>
    80001992:	a011                	j	80001996 <.LBB1_225+0x44>
            off += size_of::<ProgHeader>();
    80001994:	a059                	j	80001a1a <.LBB1_229+0x14>
    80001996:	4501                	li	a0,0
                    drop(inode_guard);
    80001998:	54a10723          	sb	a0,1358(sp)
    8000199c:	44813503          	ld	a0,1096(sp)
    800019a0:	45013583          	ld	a1,1104(sp)
    800019a4:	0001b097          	auipc	ra,0x1b
    800019a8:	50e080e7          	jalr	1294(ra) # 8001ceb2 <_ZN4core3mem4drop17h3f96085e4daee3c2E>
    800019ac:	a009                	j	800019ae <.LBB1_226>

00000000800019ae <.LBB1_226>:
                    LOG.end_op();
    800019ae:	00058517          	auipc	a0,0x58
    800019b2:	cba50513          	addi	a0,a0,-838 # 80059668 <_ZN6kernel2fs3log3LOG17h2c1d1dbdf3a7e402E>
    800019b6:	00008097          	auipc	ra,0x8
    800019ba:	82c080e7          	jalr	-2004(ra) # 800091e2 <_ZN6kernel2fs3log78_$LT$impl$u20$kernel..lock..spinlock..Spinlock$LT$kernel..fs..log..Log$GT$$GT$6end_op17h345c15f0248f080bE>
    800019be:	a009                	j	800019c0 <.LBB1_226+0x12>
                    return Err("exec: Fail to load segment. ")
    800019c0:	2a013583          	ld	a1,672(sp)

00000000800019c4 <.LBB1_227>:
    800019c4:	00024517          	auipc	a0,0x24
    800019c8:	aee50513          	addi	a0,a0,-1298 # 800254b2 <.L__unnamed_18>
    800019cc:	e588                	sd	a0,8(a1)
    800019ce:	4571                	li	a0,28
    800019d0:	e988                	sd	a0,16(a1)
    800019d2:	4505                	li	a0,1
    800019d4:	e188                	sd	a0,0(a1)
    800019d6:	af29                	j	800020f0 <.LBB1_239+0xd0>
    800019d8:	4501                	li	a0,0
                drop(inode_guard);
    800019da:	54a10723          	sb	a0,1358(sp)
    800019de:	44813503          	ld	a0,1096(sp)
    800019e2:	45013583          	ld	a1,1104(sp)
    800019e6:	0001b097          	auipc	ra,0x1b
    800019ea:	4cc080e7          	jalr	1228(ra) # 8001ceb2 <_ZN4core3mem4drop17h3f96085e4daee3c2E>
    800019ee:	a009                	j	800019f0 <.LBB1_228>

00000000800019f0 <.LBB1_228>:
                LOG.end_op();
    800019f0:	00058517          	auipc	a0,0x58
    800019f4:	c7850513          	addi	a0,a0,-904 # 80059668 <_ZN6kernel2fs3log3LOG17h2c1d1dbdf3a7e402E>
    800019f8:	00007097          	auipc	ra,0x7
    800019fc:	7ea080e7          	jalr	2026(ra) # 800091e2 <_ZN6kernel2fs3log78_$LT$impl$u20$kernel..lock..spinlock..Spinlock$LT$kernel..fs..log..Log$GT$$GT$6end_op17h345c15f0248f080bE>
    80001a00:	a009                	j	80001a02 <.LBB1_228+0x12>
                return Err("exec: Fail to read from inode")
    80001a02:	2a013583          	ld	a1,672(sp)

0000000080001a06 <.LBB1_229>:
    80001a06:	00024517          	auipc	a0,0x24
    80001a0a:	af950513          	addi	a0,a0,-1287 # 800254ff <.L__unnamed_19>
    80001a0e:	e588                	sd	a0,8(a1)
    80001a10:	4575                	li	a0,29
    80001a12:	e988                	sd	a0,16(a1)
    80001a14:	4505                	li	a0,1
    80001a16:	e188                	sd	a0,0(a1)
    80001a18:	ade1                	j	800020f0 <.LBB1_239+0xd0>
            off += size_of::<ProgHeader>();
    80001a1a:	47013583          	ld	a1,1136(sp)
    80001a1e:	03858513          	addi	a0,a1,56 # 1038 <.Lline_table_start0+0x343>
    80001a22:	efaa                	sd	a0,472(sp)
    80001a24:	72b56263          	bltu	a0,a1,80002148 <.LBB1_244>
    80001a28:	a009                	j	80001a2a <.LBB1_229+0x24>
    80001a2a:	657e                	ld	a0,472(sp)
    80001a2c:	46a13823          	sd	a0,1136(sp)
        for _ in 0..elf.phnum {
    80001a30:	b9a5                	j	800016a8 <.LBB1_217+0x86>

0000000080001a32 <.LBB1_230>:
        LOG.end_op();
    80001a32:	00058517          	auipc	a0,0x58
    80001a36:	c3650513          	addi	a0,a0,-970 # 80059668 <_ZN6kernel2fs3log3LOG17h2c1d1dbdf3a7e402E>
    80001a3a:	00007097          	auipc	ra,0x7
    80001a3e:	7a8080e7          	jalr	1960(ra) # 800091e2 <_ZN6kernel2fs3log78_$LT$impl$u20$kernel..lock..spinlock..Spinlock$LT$kernel..fs..log..Log$GT$$GT$6end_op17h345c15f0248f080bE>
    80001a42:	a009                	j	80001a44 <.LBB1_231>

0000000080001a44 <.LBB1_231>:

        p = CPU_MANAGER.myproc().unwrap();
    80001a44:	00062517          	auipc	a0,0x62
    80001a48:	6fc50513          	addi	a0,a0,1788 # 80064140 <_ZN6kernel7process3cpu11CPU_MANAGER17h1e19e3b88580bd28E>
    80001a4c:	00010097          	auipc	ra,0x10
    80001a50:	fde080e7          	jalr	-34(ra) # 80011a2a <_ZN6kernel7process3cpu10CPUManager6myproc17ha7f4be725669dfb9E>
    80001a54:	ebaa                	sd	a0,464(sp)
    80001a56:	a009                	j	80001a58 <.LBB1_231+0x14>
    80001a58:	655e                	ld	a0,464(sp)

0000000080001a5a <.LBB1_232>:
    80001a5a:	00024597          	auipc	a1,0x24
    80001a5e:	ac658593          	addi	a1,a1,-1338 # 80025520 <.L__unnamed_20>
    80001a62:	0000d097          	auipc	ra,0xd
    80001a66:	25a080e7          	jalr	602(ra) # 8000ecbc <_ZN4core6option15Option$LT$T$GT$6unwrap17h81f0c84c54a80648E>
    80001a6a:	e7aa                	sd	a0,456(sp)
    80001a6c:	a009                	j	80001a6e <.LBB1_232+0x14>
    80001a6e:	653e                	ld	a0,456(sp)
    80001a70:	5aa13423          	sd	a0,1448(sp)
        let old_size = p.size;
    80001a74:	6908                	ld	a0,16(a0)
    80001a76:	ff2a                	sd	a0,440(sp)
    80001a78:	5aa13823          	sd	a0,1456(sp)

        // Allocate two pages at the next page boundary
        // Use the second as the user stack. 
        size = page_round_up(size);
    80001a7c:	2c013503          	ld	a0,704(sp)
    80001a80:	0001c097          	auipc	ra,0x1c
    80001a84:	c06080e7          	jalr	-1018(ra) # 8001d686 <_ZN6kernel6memory7mapping13page_round_up17h53b8f5a3d9b0c04fE>
    80001a88:	e3aa                	sd	a0,448(sp)
    80001a8a:	a009                	j	80001a8c <.LBB1_232+0x32>
    80001a8c:	659e                	ld	a1,448(sp)
    80001a8e:	2cb13023          	sd	a1,704(sp)
        match page_table
                .uvm_alloc(size, size + 2 * PGSIZE) {
    80001a92:	852e                	mv	a0,a1
    80001a94:	f72a                	sd	a0,424(sp)
    80001a96:	6509                	lui	a0,0x2
    80001a98:	952e                	add	a0,a0,a1
    80001a9a:	fb2a                	sd	a0,432(sp)
    80001a9c:	6cb56463          	bltu	a0,a1,80002164 <.LBB1_246>
    80001aa0:	a009                	j	80001aa2 <.LBB1_232+0x48>
        match page_table
    80001aa2:	765a                	ld	a2,432(sp)
    80001aa4:	75ba                	ld	a1,424(sp)
    80001aa6:	22813503          	ld	a0,552(sp)
    80001aaa:	00016097          	auipc	ra,0x16
    80001aae:	942080e7          	jalr	-1726(ra) # 800173ec <_ZN6kernel6memory7mapping10page_table9PageTable9uvm_alloc17h600a2c8e8dc8349aE>
    80001ab2:	4ca13c23          	sd	a0,1240(sp)
    80001ab6:	4eb13023          	sd	a1,1248(sp)
    80001aba:	a009                	j	80001abc <.LBB1_232+0x62>
            None => {
    80001abc:	4d813503          	ld	a0,1240(sp)
    80001ac0:	4581                	li	a1,0
    80001ac2:	02b50063          	beq	a0,a1,80001ae2 <.LBB1_232+0x88>
    80001ac6:	a009                	j	80001ac8 <.LBB1_232+0x6e>
                page_table.proc_free_pagetable(size);
                return Err("exec: Fail to uvmalloc")
            }

            Some(new_size) => {
    80001ac8:	4e013503          	ld	a0,1248(sp)
    80001acc:	5aa13c23          	sd	a0,1464(sp)
                size = new_size;
    80001ad0:	2ca13023          	sd	a0,704(sp)
    80001ad4:	75f9                	lui	a1,0xffffe
            }
        }

        page_table.uvm_clear(VirtualAddress::new(size - 2 * PGSIZE));
    80001ad6:	95aa                	add	a1,a1,a0
    80001ad8:	f32e                	sd	a1,416(sp)
    80001ada:	6ab56363          	bltu	a0,a1,80002180 <.LBB1_248>
    80001ade:	a03d                	j	80001b0c <.LBB1_233+0x14>
        match page_table
    80001ae0:	0000                	unimp
                page_table.proc_free_pagetable(size);
    80001ae2:	22813503          	ld	a0,552(sp)
    80001ae6:	2c013583          	ld	a1,704(sp)
    80001aea:	00016097          	auipc	ra,0x16
    80001aee:	67e080e7          	jalr	1662(ra) # 80018168 <_ZN6kernel6memory7mapping10page_table9PageTable19proc_free_pagetable17h67102aea540089c1E>
    80001af2:	a009                	j	80001af4 <.LBB1_232+0x9a>
                return Err("exec: Fail to uvmalloc")
    80001af4:	2a013583          	ld	a1,672(sp)

0000000080001af8 <.LBB1_233>:
    80001af8:	00024517          	auipc	a0,0x24
    80001afc:	d1050513          	addi	a0,a0,-752 # 80025808 <.L__unnamed_21>
    80001b00:	e588                	sd	a0,8(a1)
    80001b02:	4559                	li	a0,22
    80001b04:	e988                	sd	a0,16(a1)
    80001b06:	4505                	li	a0,1
    80001b08:	e188                	sd	a0,0(a1)
    80001b0a:	a3dd                	j	800020f0 <.LBB1_239+0xd0>
        page_table.uvm_clear(VirtualAddress::new(size - 2 * PGSIZE));
    80001b0c:	751a                	ld	a0,416(sp)
    80001b0e:	00010097          	auipc	ra,0x10
    80001b12:	a0a080e7          	jalr	-1526(ra) # 80011518 <_ZN6kernel6memory7address14VirtualAddress3new17h716be423461f1938E>
    80001b16:	ef2a                	sd	a0,408(sp)
    80001b18:	a009                	j	80001b1a <.LBB1_233+0x22>
    80001b1a:	65fa                	ld	a1,408(sp)
    80001b1c:	22813503          	ld	a0,552(sp)
    80001b20:	00016097          	auipc	ra,0x16
    80001b24:	ea2080e7          	jalr	-350(ra) # 800179c2 <_ZN6kernel6memory7mapping10page_table9PageTable9uvm_clear17hb623751aee30bcf2E>
    80001b28:	a009                	j	80001b2a <.LBB1_233+0x32>
        // Get stack top address. 
        sp = size;
    80001b2a:	2c013503          	ld	a0,704(sp)
    80001b2e:	2ca13423          	sd	a0,712(sp)
        // Get stack bottom address. 
        stack_base = sp - PGSIZE;
    80001b32:	80050593          	addi	a1,a0,-2048
    80001b36:	80058593          	addi	a1,a1,-2048 # ffffffffffffd800 <end+0xffffffff7ff99270>
    80001b3a:	eb2e                	sd	a1,400(sp)
    80001b3c:	66b56163          	bltu	a0,a1,8000219e <.LBB1_250>
    80001b40:	a009                	j	80001b42 <.LBB1_233+0x4a>
    80001b42:	655a                	ld	a0,400(sp)
    80001b44:	5ca13023          	sd	a0,1472(sp)
    80001b48:	4501                	li	a0,0

        // Push argument strings, prepare rest of stack in ustack. 
        let mut argc = 0;
    80001b4a:	4ea13423          	sd	a0,1256(sp)
        loop {
    80001b4e:	a009                	j	80001b50 <.LBB1_233+0x58>
            if argv[argc] as usize == 0x0 { break; }
    80001b50:	28013583          	ld	a1,640(sp)
    80001b54:	4e813503          	ld	a0,1256(sp)
    80001b58:	e72a                	sd	a0,392(sp)
    80001b5a:	66b57163          	bgeu	a0,a1,800021bc <.LBB1_251+0x16>
    80001b5e:	a009                	j	80001b60 <.LBB1_233+0x68>
    80001b60:	28813503          	ld	a0,648(sp)
    80001b64:	65ba                	ld	a1,392(sp)
    80001b66:	058e                	slli	a1,a1,0x3
    80001b68:	952e                	add	a0,a0,a1
    80001b6a:	6108                	ld	a0,0(a0)
    80001b6c:	4581                	li	a1,0
    80001b6e:	00b51b63          	bne	a0,a1,80001b84 <.LBB1_233+0x8c>
    80001b72:	a009                	j	80001b74 <.LBB1_233+0x7c>
                    return Err("exec: Fail to copy out.") 
                }
            user_stack[argc] = sp;
            argc += 1;
        }
    user_stack[argc] = 0;
    80001b74:	4e813503          	ld	a0,1256(sp)
    80001b78:	e32a                	sd	a0,384(sp)
    80001b7a:	02000593          	li	a1,32
    80001b7e:	20b56763          	bltu	a0,a1,80001d8c <.LBB1_236+0x3a>
    80001b82:	af35                	j	800022be <.LBB1_265+0x14>
            if argc >= MAXARG {
    80001b84:	4e813503          	ld	a0,1256(sp)
    80001b88:	02000593          	li	a1,32
    80001b8c:	00b56c63          	bltu	a0,a1,80001ba4 <.LBB1_233+0xac>
    80001b90:	a009                	j	80001b92 <.LBB1_233+0x9a>
                page_table.proc_free_pagetable(size);
    80001b92:	22813503          	ld	a0,552(sp)
    80001b96:	2c013583          	ld	a1,704(sp)
    80001b9a:	00016097          	auipc	ra,0x16
    80001b9e:	5ce080e7          	jalr	1486(ra) # 80018168 <_ZN6kernel6memory7mapping10page_table9PageTable19proc_free_pagetable17h67102aea540089c1E>
    80001ba2:	a809                	j	80001bb4 <.LBB1_233+0xbc>
            sp -= str_len(argv[argc]) + 1;
    80001ba4:	28013583          	ld	a1,640(sp)
    80001ba8:	4e813503          	ld	a0,1256(sp)
    80001bac:	feaa                	sd	a0,376(sp)
    80001bae:	02b56063          	bltu	a0,a1,80001bce <.LBB1_234+0x16>
    80001bb2:	a50d                	j	800021d4 <.LBB1_252+0x12>
                return Err("exec: argc is more than MAXARG. ")
    80001bb4:	2a013583          	ld	a1,672(sp)

0000000080001bb8 <.LBB1_234>:
    80001bb8:	00023517          	auipc	a0,0x23
    80001bbc:	7a250513          	addi	a0,a0,1954 # 8002535a <.L__unnamed_11+0x13e>
    80001bc0:	e588                	sd	a0,8(a1)
    80001bc2:	02000513          	li	a0,32
    80001bc6:	e988                	sd	a0,16(a1)
    80001bc8:	4505                	li	a0,1
    80001bca:	e188                	sd	a0,0(a1)
    80001bcc:	a315                	j	800020f0 <.LBB1_239+0xd0>
            sp -= str_len(argv[argc]) + 1;
    80001bce:	28813503          	ld	a0,648(sp)
    80001bd2:	75f6                	ld	a1,376(sp)
    80001bd4:	058e                	slli	a1,a1,0x3
    80001bd6:	952e                	add	a0,a0,a1
    80001bd8:	6108                	ld	a0,0(a0)
    80001bda:	00006097          	auipc	ra,0x6
    80001bde:	cec080e7          	jalr	-788(ra) # 800078c6 <_ZN6kernel4misc7str_len17h64928e428ab71413E>
    80001be2:	faaa                	sd	a0,368(sp)
    80001be4:	a009                	j	80001be6 <.LBB1_234+0x2e>
    80001be6:	75d6                	ld	a1,368(sp)
    80001be8:	00158513          	addi	a0,a1,1
    80001bec:	f6aa                	sd	a0,360(sp)
    80001bee:	5eb56f63          	bltu	a0,a1,800021ec <.LBB1_254>
    80001bf2:	a009                	j	80001bf4 <.LBB1_234+0x3c>
    80001bf4:	75b6                	ld	a1,360(sp)
    80001bf6:	2c813503          	ld	a0,712(sp)
    80001bfa:	40b505b3          	sub	a1,a0,a1
    80001bfe:	f2ae                	sd	a1,352(sp)
    80001c00:	60b56463          	bltu	a0,a1,80002208 <.LBB1_256>
    80001c04:	a009                	j	80001c06 <.LBB1_234+0x4e>
    80001c06:	7516                	ld	a0,352(sp)
    80001c08:	2ca13423          	sd	a0,712(sp)
            sp = align_sp(sp);
    80001c0c:	00000097          	auipc	ra,0x0
    80001c10:	796080e7          	jalr	1942(ra) # 800023a2 <_ZN6kernel7process3elf8align_sp17h0cb3435f5c58b65bE>
    80001c14:	eeaa                	sd	a0,344(sp)
    80001c16:	a009                	j	80001c18 <.LBB1_234+0x60>
    80001c18:	6576                	ld	a0,344(sp)
    80001c1a:	65da                	ld	a1,400(sp)
    80001c1c:	2ca13423          	sd	a0,712(sp)
            if sp < stack_base {
    80001c20:	00b57a63          	bgeu	a0,a1,80001c34 <.LBB1_234+0x7c>
    80001c24:	a009                	j	80001c26 <.LBB1_234+0x6e>
                drop(page_table);
    80001c26:	22813503          	ld	a0,552(sp)
    80001c2a:	0001b097          	auipc	ra,0x1b
    80001c2e:	318080e7          	jalr	792(ra) # 8001cf42 <_ZN4core3mem4drop17ha184dbcd1a83d607E>
    80001c32:	a821                	j	80001c4a <.LBB1_234+0x92>
                    sp, 
    80001c34:	28013583          	ld	a1,640(sp)
    80001c38:	2c813503          	ld	a0,712(sp)
                        argv[argc] as *mut u8, 
    80001c3c:	e6aa                	sd	a0,328(sp)
    80001c3e:	4e813503          	ld	a0,1256(sp)
    80001c42:	eaaa                	sd	a0,336(sp)
    80001c44:	00b56f63          	bltu	a0,a1,80001c62 <.LBB1_235+0x14>
    80001c48:	abf9                	j	80002226 <.LBB1_257+0x16>
                return Err("User Stack Bomb!")
    80001c4a:	2a013583          	ld	a1,672(sp)

0000000080001c4e <.LBB1_235>:
    80001c4e:	00024517          	auipc	a0,0x24
    80001c52:	9f250513          	addi	a0,a0,-1550 # 80025640 <.L__unnamed_35+0x78>
    80001c56:	e588                	sd	a0,8(a1)
    80001c58:	4541                	li	a0,16
    80001c5a:	e988                	sd	a0,16(a1)
    80001c5c:	4505                	li	a0,1
    80001c5e:	e188                	sd	a0,0(a1)
    80001c60:	a941                	j	800020f0 <.LBB1_239+0xd0>
                        argv[argc] as *mut u8, 
    80001c62:	28013583          	ld	a1,640(sp)
    80001c66:	28813503          	ld	a0,648(sp)
    80001c6a:	6656                	ld	a2,336(sp)
    80001c6c:	060e                	slli	a2,a2,0x3
    80001c6e:	9532                	add	a0,a0,a2
    80001c70:	6108                	ld	a0,0(a0)
                        str_len(argv[argc])
    80001c72:	fe2a                	sd	a0,312(sp)
    80001c74:	4e813503          	ld	a0,1256(sp)
    80001c78:	e2aa                	sd	a0,320(sp)
    80001c7a:	5cb57263          	bgeu	a0,a1,8000223e <.LBB1_258+0x12>
    80001c7e:	a009                	j	80001c80 <.LBB1_235+0x32>
    80001c80:	28813503          	ld	a0,648(sp)
    80001c84:	6596                	ld	a1,320(sp)
    80001c86:	058e                	slli	a1,a1,0x3
    80001c88:	952e                	add	a0,a0,a1
    80001c8a:	6108                	ld	a0,0(a0)
    80001c8c:	00006097          	auipc	ra,0x6
    80001c90:	c3a080e7          	jalr	-966(ra) # 800078c6 <_ZN6kernel4misc7str_len17h64928e428ab71413E>
    80001c94:	fa2a                	sd	a0,304(sp)
    80001c96:	a009                	j	80001c98 <.LBB1_235+0x4a>
                    core::slice::from_raw_parts_mut(
    80001c98:	75d2                	ld	a1,304(sp)
    80001c9a:	7572                	ld	a0,312(sp)
    80001c9c:	00003097          	auipc	ra,0x3
    80001ca0:	71c080e7          	jalr	1820(ra) # 800053b8 <_ZN4core5slice3raw18from_raw_parts_mut17h0bc9e5c0c3217bc8E>
    80001ca4:	f22a                	sd	a0,288(sp)
    80001ca6:	f62e                	sd	a1,296(sp)
    80001ca8:	a009                	j	80001caa <.LBB1_235+0x5c>
    80001caa:	75b2                	ld	a1,296(sp)
    80001cac:	7512                	ld	a0,288(sp)
    80001cae:	0001e097          	auipc	ra,0x1e
    80001cb2:	808080e7          	jalr	-2040(ra) # 8001f4b6 <_ZN4core5slice29_$LT$impl$u20$$u5b$T$u5d$$GT$6as_ptr17hf7620495824cfb20E>
    80001cb6:	ee2a                	sd	a0,280(sp)
    80001cb8:	a009                	j	80001cba <.LBB1_235+0x6c>
                    str_len(argv[argc]) + 1,
    80001cba:	28013583          	ld	a1,640(sp)
    80001cbe:	4e813503          	ld	a0,1256(sp)
    80001cc2:	ea2a                	sd	a0,272(sp)
    80001cc4:	58b57963          	bgeu	a0,a1,80002256 <.LBB1_259+0x12>
    80001cc8:	a009                	j	80001cca <.LBB1_235+0x7c>
    80001cca:	28813503          	ld	a0,648(sp)
    80001cce:	65d2                	ld	a1,272(sp)
    80001cd0:	058e                	slli	a1,a1,0x3
    80001cd2:	952e                	add	a0,a0,a1
    80001cd4:	6108                	ld	a0,0(a0)
    80001cd6:	00006097          	auipc	ra,0x6
    80001cda:	bf0080e7          	jalr	-1040(ra) # 800078c6 <_ZN6kernel4misc7str_len17h64928e428ab71413E>
    80001cde:	e62a                	sd	a0,264(sp)
    80001ce0:	a009                	j	80001ce2 <.LBB1_235+0x94>
    80001ce2:	65b2                	ld	a1,264(sp)
    80001ce4:	00158513          	addi	a0,a1,1
    80001ce8:	e22a                	sd	a0,256(sp)
    80001cea:	58b56263          	bltu	a0,a1,8000226e <.LBB1_261>
    80001cee:	a009                	j	80001cf0 <.LBB1_235+0xa2>
            if page_table
    80001cf0:	6692                	ld	a3,256(sp)
    80001cf2:	6672                	ld	a2,280(sp)
    80001cf4:	65b6                	ld	a1,328(sp)
    80001cf6:	22813503          	ld	a0,552(sp)
    80001cfa:	00016097          	auipc	ra,0x16
    80001cfe:	d18080e7          	jalr	-744(ra) # 80017a12 <_ZN6kernel6memory7mapping10page_table9PageTable8copy_out17h55d0f27ee3680817E>
    80001d02:	4ea13823          	sd	a0,1264(sp)
    80001d06:	4eb13c23          	sd	a1,1272(sp)
    80001d0a:	a009                	j	80001d0c <.LBB1_235+0xbe>
    80001d0c:	4f010513          	addi	a0,sp,1264
    80001d10:	0000b097          	auipc	ra,0xb
    80001d14:	fa6080e7          	jalr	-90(ra) # 8000ccb6 <_ZN4core6result19Result$LT$T$C$E$GT$6is_err17h304118d236359d80E>
    80001d18:	fdaa                	sd	a0,248(sp)
    80001d1a:	a009                	j	80001d1c <.LBB1_235+0xce>
    80001d1c:	756e                	ld	a0,248(sp)
    80001d1e:	4581                	li	a1,0
    80001d20:	00b50c63          	beq	a0,a1,80001d38 <.LBB1_235+0xea>
    80001d24:	a009                	j	80001d26 <.LBB1_235+0xd8>
                    page_table.proc_free_pagetable(size);
    80001d26:	22813503          	ld	a0,552(sp)
    80001d2a:	2c013583          	ld	a1,704(sp)
    80001d2e:	00016097          	auipc	ra,0x16
    80001d32:	43a080e7          	jalr	1082(ra) # 80018168 <_ZN6kernel6memory7mapping10page_table9PageTable19proc_free_pagetable17h67102aea540089c1E>
    80001d36:	a821                	j	80001d4e <.LBB1_235+0x100>
            user_stack[argc] = sp;
    80001d38:	2c813503          	ld	a0,712(sp)
    80001d3c:	f5aa                	sd	a0,232(sp)
    80001d3e:	4e813503          	ld	a0,1256(sp)
    80001d42:	f9aa                	sd	a0,240(sp)
    80001d44:	02000593          	li	a1,32
    80001d48:	00b56f63          	bltu	a0,a1,80001d66 <.LBB1_236+0x14>
    80001d4c:	ab3d                	j	8000228a <.LBB1_262+0x14>
                    return Err("exec: Fail to copy out.") 
    80001d4e:	2a013583          	ld	a1,672(sp)

0000000080001d52 <.LBB1_236>:
    80001d52:	00024517          	auipc	a0,0x24
    80001d56:	9ae50513          	addi	a0,a0,-1618 # 80025700 <.L__unnamed_24>
    80001d5a:	e588                	sd	a0,8(a1)
    80001d5c:	455d                	li	a0,23
    80001d5e:	e988                	sd	a0,16(a1)
    80001d60:	4505                	li	a0,1
    80001d62:	e188                	sd	a0,0(a1)
    80001d64:	a671                	j	800020f0 <.LBB1_239+0xd0>
            user_stack[argc] = sp;
    80001d66:	752e                	ld	a0,232(sp)
    80001d68:	75ce                	ld	a1,240(sp)
    80001d6a:	00359613          	slli	a2,a1,0x3
    80001d6e:	0d8c                	addi	a1,sp,720
    80001d70:	95b2                	add	a1,a1,a2
    80001d72:	e188                	sd	a0,0(a1)
            argc += 1;
    80001d74:	4e813583          	ld	a1,1256(sp)
    80001d78:	00158513          	addi	a0,a1,1
    80001d7c:	f1aa                	sd	a0,224(sp)
    80001d7e:	52b56263          	bltu	a0,a1,800022a2 <.LBB1_264>
    80001d82:	a009                	j	80001d84 <.LBB1_236+0x32>
    80001d84:	750e                	ld	a0,224(sp)
    80001d86:	4ea13423          	sd	a0,1256(sp)
        loop {
    80001d8a:	b3d9                	j	80001b50 <.LBB1_233+0x58>
    user_stack[argc] = 0;
    80001d8c:	651a                	ld	a0,384(sp)
    80001d8e:	00351593          	slli	a1,a0,0x3
    80001d92:	0d88                	addi	a0,sp,720
    80001d94:	95aa                	add	a1,a1,a0
    80001d96:	4501                	li	a0,0
    80001d98:	e188                	sd	a0,0(a1)

    // Push the array of argv pointers. 
    sp -= (argc + 1) * size_of::<usize>();
    80001d9a:	4e813583          	ld	a1,1256(sp)
    80001d9e:	00158513          	addi	a0,a1,1
    80001da2:	edaa                	sd	a0,216(sp)
    80001da4:	52b56963          	bltu	a0,a1,800022d6 <.LBB1_267>
    80001da8:	a009                	j	80001daa <.LBB1_236+0x58>
    80001daa:	a009                	j	80001dac <.LBB1_236+0x5a>
    80001dac:	65ee                	ld	a1,216(sp)
    80001dae:	4505                	li	a0,1
    80001db0:	1576                	slli	a0,a0,0x3d
    80001db2:	157d                	addi	a0,a0,-1
    80001db4:	8d6d                	and	a0,a0,a1
    80001db6:	00359613          	slli	a2,a1,0x3
    80001dba:	e9b2                	sd	a2,208(sp)
    80001dbc:	52b51b63          	bne	a0,a1,800022f2 <.LBB1_269>
    80001dc0:	a009                	j	80001dc2 <.LBB1_236+0x70>
    80001dc2:	65ce                	ld	a1,208(sp)
    80001dc4:	2c813503          	ld	a0,712(sp)
    80001dc8:	40b505b3          	sub	a1,a0,a1
    80001dcc:	e5ae                	sd	a1,200(sp)
    80001dce:	54b56163          	bltu	a0,a1,80002310 <.LBB1_271>
    80001dd2:	a009                	j	80001dd4 <.LBB1_236+0x82>
    80001dd4:	652e                	ld	a0,200(sp)
    80001dd6:	2ca13423          	sd	a0,712(sp)
    sp = align_sp(sp);
    80001dda:	00000097          	auipc	ra,0x0
    80001dde:	5c8080e7          	jalr	1480(ra) # 800023a2 <_ZN6kernel7process3elf8align_sp17h0cb3435f5c58b65bE>
    80001de2:	e1aa                	sd	a0,192(sp)
    80001de4:	a009                	j	80001de6 <.LBB1_236+0x94>
    80001de6:	650e                	ld	a0,192(sp)
    80001de8:	65da                	ld	a1,400(sp)
    80001dea:	2ca13423          	sd	a0,712(sp)
    if sp < stack_base {
    80001dee:	00b57c63          	bgeu	a0,a1,80001e06 <.LBB1_237+0x12>
    80001df2:	a009                	j	80001df4 <.LBB1_237>

0000000080001df4 <.LBB1_237>:
        LOG.end_op();
    80001df4:	00058517          	auipc	a0,0x58
    80001df8:	87450513          	addi	a0,a0,-1932 # 80059668 <_ZN6kernel2fs3log3LOG17h2c1d1dbdf3a7e402E>
    80001dfc:	00007097          	auipc	ra,0x7
    80001e00:	3e6080e7          	jalr	998(ra) # 800091e2 <_ZN6kernel2fs3log78_$LT$impl$u20$kernel..lock..spinlock..Spinlock$LT$kernel..fs..log..Log$GT$$GT$6end_op17h345c15f0248f080bE>
    80001e04:	a011                	j	80001e08 <.LBB1_237+0x14>
    if sp < stack_base {
    80001e06:	a819                	j	80001e1c <.LBB1_237+0x28>
        page_table.proc_free_pagetable(size);
    80001e08:	22813503          	ld	a0,552(sp)
    80001e0c:	2c013583          	ld	a1,704(sp)
    80001e10:	00016097          	auipc	ra,0x16
    80001e14:	358080e7          	jalr	856(ra) # 80018168 <_ZN6kernel6memory7mapping10page_table9PageTable19proc_free_pagetable17h67102aea540089c1E>
    80001e18:	a009                	j	80001e1a <.LBB1_237+0x26>
    if sp < stack_base {
    80001e1a:	a009                	j	80001e1c <.LBB1_237+0x28>
    }

    if page_table
    .copy_out(
        sp, 
    80001e1c:	2c813503          	ld	a0,712(sp)
        core::slice::from_raw_parts_mut(
            user_stack.as_mut_ptr() as *mut u8, 
    80001e20:	f92a                	sd	a0,176(sp)
    80001e22:	0d88                	addi	a0,sp,720
    80001e24:	02000593          	li	a1,32
    80001e28:	0001d097          	auipc	ra,0x1d
    80001e2c:	600080e7          	jalr	1536(ra) # 8001f428 <_ZN4core5slice29_$LT$impl$u20$$u5b$T$u5d$$GT$10as_mut_ptr17he2d11453020d912aE>
    80001e30:	fd2a                	sd	a0,184(sp)
    80001e32:	a009                	j	80001e34 <.LBB1_237+0x40>
    80001e34:	756a                	ld	a0,184(sp)
            (argc + 1)*size_of::<usize>()
    80001e36:	f12a                	sd	a0,160(sp)
    80001e38:	4e813583          	ld	a1,1256(sp)
    80001e3c:	00158513          	addi	a0,a1,1
    80001e40:	f52a                	sd	a0,168(sp)
    80001e42:	4eb56663          	bltu	a0,a1,8000232e <.LBB1_273>
    80001e46:	a009                	j	80001e48 <.LBB1_237+0x54>
    80001e48:	a009                	j	80001e4a <.LBB1_237+0x56>
    80001e4a:	75aa                	ld	a1,168(sp)
    80001e4c:	4505                	li	a0,1
    80001e4e:	1576                	slli	a0,a0,0x3d
    80001e50:	157d                	addi	a0,a0,-1
    80001e52:	8d6d                	and	a0,a0,a1
    80001e54:	00359613          	slli	a2,a1,0x3
    80001e58:	ed32                	sd	a2,152(sp)
    80001e5a:	4eb51863          	bne	a0,a1,8000234a <.LBB1_275>
    80001e5e:	a009                	j	80001e60 <.LBB1_237+0x6c>
        core::slice::from_raw_parts_mut(
    80001e60:	65ea                	ld	a1,152(sp)
    80001e62:	750a                	ld	a0,160(sp)
    80001e64:	00003097          	auipc	ra,0x3
    80001e68:	554080e7          	jalr	1364(ra) # 800053b8 <_ZN4core5slice3raw18from_raw_parts_mut17h0bc9e5c0c3217bc8E>
    80001e6c:	e52a                	sd	a0,136(sp)
    80001e6e:	e92e                	sd	a1,144(sp)
    80001e70:	a009                	j	80001e72 <.LBB1_237+0x7e>
    80001e72:	65ca                	ld	a1,144(sp)
    80001e74:	652a                	ld	a0,136(sp)
    80001e76:	0001d097          	auipc	ra,0x1d
    80001e7a:	640080e7          	jalr	1600(ra) # 8001f4b6 <_ZN4core5slice29_$LT$impl$u20$$u5b$T$u5d$$GT$6as_ptr17hf7620495824cfb20E>
    80001e7e:	e12a                	sd	a0,128(sp)
    80001e80:	a009                	j	80001e82 <.LBB1_237+0x8e>
        ).as_ptr(),
            (argc + 1)*size_of::<usize>()
    80001e82:	4e813583          	ld	a1,1256(sp)
    80001e86:	00158513          	addi	a0,a1,1
    80001e8a:	fcaa                	sd	a0,120(sp)
    80001e8c:	4cb56e63          	bltu	a0,a1,80002368 <.LBB1_277>
    80001e90:	a009                	j	80001e92 <.LBB1_237+0x9e>
    80001e92:	a009                	j	80001e94 <.LBB1_237+0xa0>
    80001e94:	75e6                	ld	a1,120(sp)
    80001e96:	4505                	li	a0,1
    80001e98:	1576                	slli	a0,a0,0x3d
    80001e9a:	157d                	addi	a0,a0,-1
    80001e9c:	8d6d                	and	a0,a0,a1
    80001e9e:	00359613          	slli	a2,a1,0x3
    80001ea2:	f8b2                	sd	a2,112(sp)
    80001ea4:	4eb51063          	bne	a0,a1,80002384 <.LBB1_279>
    80001ea8:	a009                	j	80001eaa <.LBB1_237+0xb6>
    if page_table
    80001eaa:	76c6                	ld	a3,112(sp)
    80001eac:	660a                	ld	a2,128(sp)
    80001eae:	75ca                	ld	a1,176(sp)
    80001eb0:	22813503          	ld	a0,552(sp)
    80001eb4:	00016097          	auipc	ra,0x16
    80001eb8:	b5e080e7          	jalr	-1186(ra) # 80017a12 <_ZN6kernel6memory7mapping10page_table9PageTable8copy_out17h55d0f27ee3680817E>
    80001ebc:	50a13023          	sd	a0,1280(sp)
    80001ec0:	50b13423          	sd	a1,1288(sp)
    80001ec4:	a009                	j	80001ec6 <.LBB1_237+0xd2>
    80001ec6:	50010513          	addi	a0,sp,1280
    80001eca:	0000b097          	auipc	ra,0xb
    80001ece:	dec080e7          	jalr	-532(ra) # 8000ccb6 <_ZN4core6result19Result$LT$T$C$E$GT$6is_err17h304118d236359d80E>
    80001ed2:	f4aa                	sd	a0,104(sp)
    80001ed4:	a009                	j	80001ed6 <.LBB1_237+0xe2>
    80001ed6:	7526                	ld	a0,104(sp)
    80001ed8:	4581                	li	a1,0
    80001eda:	00b50c63          	beq	a0,a1,80001ef2 <.LBB1_237+0xfe>
    80001ede:	a009                	j	80001ee0 <.LBB1_237+0xec>
    ).is_err() {
        page_table.proc_free_pagetable(size);
    80001ee0:	22813503          	ld	a0,552(sp)
    80001ee4:	2c013583          	ld	a1,704(sp)
    80001ee8:	00016097          	auipc	ra,0x16
    80001eec:	280080e7          	jalr	640(ra) # 80018168 <_ZN6kernel6memory7mapping10page_table9PageTable19proc_free_pagetable17h67102aea540089c1E>
    80001ef0:	a005                	j	80001f10 <.LBB1_237+0x11c>

    // arguments to user main(argc, argv)
    // argc is returned via the system call return
    // value, which goes in a0. 
    
    let trapframe = &mut *p.trapframe;
    80001ef2:	653e                	ld	a0,456(sp)
    80001ef4:	710c                	ld	a1,32(a0)
    80001ef6:	f0ae                	sd	a1,96(sp)
    80001ef8:	5cb13423          	sd	a1,1480(sp)
    trapframe.a1 = sp;
    80001efc:	2c813503          	ld	a0,712(sp)
    80001f00:	fda8                	sd	a0,120(a1)
    80001f02:	51010513          	addi	a0,sp,1296

    // Save program name for debugging
    // core::ptr::copy(path.as_ptr(), &mut pdata.name as *mut u8, 16);
    let mut exec_name: String = String::new();
    80001f06:	0001c097          	auipc	ra,0x1c
    80001f0a:	38a080e7          	jalr	906(ra) # 8001e290 <_ZN5alloc6string6String3new17h806e7bcacb841554E>
    80001f0e:	a829                	j	80001f28 <.LBB1_238+0x14>
        return Err("exec: Fail to copy out.")
    80001f10:	2a013583          	ld	a1,672(sp)

0000000080001f14 <.LBB1_238>:
    80001f14:	00023517          	auipc	a0,0x23
    80001f18:	7ec50513          	addi	a0,a0,2028 # 80025700 <.L__unnamed_24>
    80001f1c:	e588                	sd	a0,8(a1)
    80001f1e:	455d                	li	a0,23
    80001f20:	e988                	sd	a0,16(a1)
    80001f22:	4505                	li	a0,1
    80001f24:	e188                	sd	a0,0(a1)
    80001f26:	a2e9                	j	800020f0 <.LBB1_239+0xd0>
    for c in path.chars() {
    80001f28:	29013583          	ld	a1,656(sp)
    80001f2c:	29813503          	ld	a0,664(sp)
    80001f30:	00016097          	auipc	ra,0x16
    80001f34:	2ec080e7          	jalr	748(ra) # 8001821c <_ZN4core3str21_$LT$impl$u20$str$GT$5chars17h18a0dd289a8edb0cE>
    80001f38:	e8aa                	sd	a0,80(sp)
    80001f3a:	ecae                	sd	a1,88(sp)
    80001f3c:	a009                	j	80001f3e <.LBB1_238+0x2a>
    80001f3e:	65e6                	ld	a1,88(sp)
    80001f40:	6546                	ld	a0,80(sp)
    80001f42:	0001c097          	auipc	ra,0x1c
    80001f46:	d4e080e7          	jalr	-690(ra) # 8001dc90 <_ZN63_$LT$I$u20$as$u20$core..iter..traits..collect..IntoIterator$GT$9into_iter17hdbffcc8df8ebe27dE>
    80001f4a:	e0aa                	sd	a0,64(sp)
    80001f4c:	e4ae                	sd	a1,72(sp)
    80001f4e:	a009                	j	80001f50 <.LBB1_238+0x3c>
    80001f50:	6526                	ld	a0,72(sp)
    80001f52:	6586                	ld	a1,64(sp)
    80001f54:	52b13423          	sd	a1,1320(sp)
    80001f58:	52a13823          	sd	a0,1328(sp)
    80001f5c:	a009                	j	80001f5e <.LBB1_238+0x4a>
    80001f5e:	52810513          	addi	a0,sp,1320
    80001f62:	0000b097          	auipc	ra,0xb
    80001f66:	b56080e7          	jalr	-1194(ra) # 8000cab8 <_ZN81_$LT$core..str..iter..Chars$u20$as$u20$core..iter..traits..iterator..Iterator$GT$4next17h562590808242c9ccE>
    80001f6a:	1502                	slli	a0,a0,0x20
    80001f6c:	9101                	srli	a0,a0,0x20
    80001f6e:	52a12e23          	sw	a0,1340(sp)
    80001f72:	a009                	j	80001f74 <.LBB1_238+0x60>
    80001f74:	53c12503          	lw	a0,1340(sp)
    80001f78:	ffef05b7          	lui	a1,0xffef0
    80001f7c:	9d2d                	addw	a0,a0,a1
    80001f7e:	00a035b3          	snez	a1,a0
    80001f82:	4581                	li	a1,0
    80001f84:	00b50463          	beq	a0,a1,80001f8c <.LBB1_238+0x78>
    80001f88:	a009                	j	80001f8a <.LBB1_238+0x76>
    80001f8a:	a819                	j	80001fa0 <.LBB1_238+0x8c>
    80001f8c:	51010513          	addi	a0,sp,1296
        if c != '/' {
            exec_name.push(c);
        }
    }
    core::ptr::copy(exec_name.as_ptr(), &mut p.name as *mut u8, 16);
    80001f90:	0001c097          	auipc	ra,0x1c
    80001f94:	3a6080e7          	jalr	934(ra) # 8001e336 <_ZN65_$LT$alloc..string..String$u20$as$u20$core..ops..deref..Deref$GT$5deref17hb3510aeed9e3d071E>
    80001f98:	f82a                	sd	a0,48(sp)
    80001f9a:	fc2e                	sd	a1,56(sp)
    80001f9c:	a835                	j	80001fd8 <.LBB1_238+0xc4>
    for c in path.chars() {
    80001f9e:	0000                	unimp
    80001fa0:	53c12503          	lw	a0,1340(sp)
    80001fa4:	02051593          	slli	a1,a0,0x20
    80001fa8:	9181                	srli	a1,a1,0x20
    80001faa:	f42e                	sd	a1,40(sp)
    80001fac:	5ca12a23          	sw	a0,1492(sp)
    80001fb0:	5ca12c23          	sw	a0,1496(sp)
    80001fb4:	5ca12e23          	sw	a0,1500(sp)
    80001fb8:	02f00593          	li	a1,47
        if c != '/' {
    80001fbc:	00b50b63          	beq	a0,a1,80001fd2 <.LBB1_238+0xbe>
    80001fc0:	a009                	j	80001fc2 <.LBB1_238+0xae>
            exec_name.push(c);
    80001fc2:	75a2                	ld	a1,40(sp)
    80001fc4:	51010513          	addi	a0,sp,1296
    80001fc8:	0001c097          	auipc	ra,0x1c
    80001fcc:	2ee080e7          	jalr	750(ra) # 8001e2b6 <_ZN5alloc6string6String4push17h2b5e883a1c1e3781E>
    80001fd0:	a011                	j	80001fd4 <.LBB1_238+0xc0>
        if c != '/' {
    80001fd2:	a011                	j	80001fd6 <.LBB1_238+0xc2>
    80001fd4:	a009                	j	80001fd6 <.LBB1_238+0xc2>
    for c in path.chars() {
    80001fd6:	b761                	j	80001f5e <.LBB1_238+0x4a>
    core::ptr::copy(exec_name.as_ptr(), &mut p.name as *mut u8, 16);
    80001fd8:	75e2                	ld	a1,56(sp)
    80001fda:	7542                	ld	a0,48(sp)
    80001fdc:	00016097          	auipc	ra,0x16
    80001fe0:	276080e7          	jalr	630(ra) # 80018252 <_ZN4core3str21_$LT$impl$u20$str$GT$6as_ptr17h399b117e49285f4dE>
    80001fe4:	f02a                	sd	a0,32(sp)
    80001fe6:	a009                	j	80001fe8 <.LBB1_238+0xd4>
    80001fe8:	7582                	ld	a1,32(sp)
    80001fea:	653e                	ld	a0,456(sp)
    80001fec:	3f850513          	addi	a0,a0,1016
    80001ff0:	4641                	li	a2,16
    80001ff2:	00023097          	auipc	ra,0x23
    80001ff6:	05e080e7          	jalr	94(ra) # 80025050 <memmove>
    80001ffa:	a009                	j	80001ffc <.LBB1_238+0xe8>

    // Commit to user image.
    let old_pgt = p.pagetable.as_mut().take().unwrap();
    80001ffc:	653e                	ld	a0,456(sp)
    80001ffe:	6d08                	ld	a0,24(a0)
    80002000:	0000b097          	auipc	ra,0xb
    80002004:	ae8080e7          	jalr	-1304(ra) # 8000cae8 <_ZN4core3ptr7mut_ptr31_$LT$impl$u20$$BP$mut$u20$T$GT$6as_mut17hfc3d5eeea9dab8e4E>
    80002008:	54a13023          	sd	a0,1344(sp)
    8000200c:	a009                	j	8000200e <.LBB1_238+0xfa>
    8000200e:	54010513          	addi	a0,sp,1344
    80002012:	0000c097          	auipc	ra,0xc
    80002016:	5a6080e7          	jalr	1446(ra) # 8000e5b8 <_ZN4core6option15Option$LT$T$GT$4take17h2bb26f7cfbd48ae3E>
    8000201a:	ec2a                	sd	a0,24(sp)
    8000201c:	a009                	j	8000201e <.LBB1_238+0x10a>
    8000201e:	6562                	ld	a0,24(sp)

0000000080002020 <.LBB1_239>:
    80002020:	00023597          	auipc	a1,0x23
    80002024:	7d058593          	addi	a1,a1,2000 # 800257f0 <.L__unnamed_25>
    80002028:	0000d097          	auipc	ra,0xd
    8000202c:	b18080e7          	jalr	-1256(ra) # 8000eb40 <_ZN4core6option15Option$LT$T$GT$6unwrap17h2b22556a60663957E>
    80002030:	85aa                	mv	a1,a0
    80002032:	e82e                	sd	a1,16(sp)
    80002034:	5ea13023          	sd	a0,1504(sp)
    80002038:	a009                	j	8000203a <.LBB1_239+0x1a>
    old_pgt.proc_free_pagetable(old_size);
    8000203a:	75fa                	ld	a1,440(sp)
    8000203c:	6542                	ld	a0,16(sp)
    8000203e:	00016097          	auipc	ra,0x16
    80002042:	12a080e7          	jalr	298(ra) # 80018168 <_ZN6kernel6memory7mapping10page_table9PageTable19proc_free_pagetable17h67102aea540089c1E>
    80002046:	a009                	j	80002048 <.LBB1_239+0x28>

    p.pagetable = pagetable;
    80002048:	2a013583          	ld	a1,672(sp)
    8000204c:	7606                	ld	a2,96(sp)
    8000204e:	66be                	ld	a3,456(sp)
    80002050:	22813503          	ld	a0,552(sp)
    80002054:	ee88                	sd	a0,24(a3)
    p.size = size;
    80002056:	2c013503          	ld	a0,704(sp)
    8000205a:	ea88                	sd	a0,16(a3)
    // initial program counter = main
    trapframe.epc = elf.entry;
    8000205c:	2b013503          	ld	a0,688(sp)
    80002060:	6d08                	ld	a0,24(a0)
    80002062:	ee08                	sd	a0,24(a2)
    // initial stack pointer
    trapframe.sp = sp;
    80002064:	2c813503          	ld	a0,712(sp)
    80002068:	fa08                	sd	a0,48(a2)

    Ok(argc)
    8000206a:	4e813503          	ld	a0,1256(sp)
    8000206e:	e588                	sd	a0,8(a1)
    80002070:	4501                	li	a0,0
    80002072:	e188                	sd	a0,0(a1)
    80002074:	51010513          	addi	a0,sp,1296
}
    80002078:	00005097          	auipc	ra,0x5
    8000207c:	e34080e7          	jalr	-460(ra) # 80006eac <_ZN4core3ptr42drop_in_place$LT$alloc..string..String$GT$17h586f2f4ef42593a1E>
    80002080:	a009                	j	80002082 <.LBB1_239+0x62>
    80002082:	4501                	li	a0,0
    80002084:	54a10723          	sb	a0,1358(sp)
    80002088:	0f88                	addi	a0,sp,976
    8000208a:	00005097          	auipc	ra,0x5
    8000208e:	e50080e7          	jalr	-432(ra) # 80006eda <_ZN4core3ptr45drop_in_place$LT$kernel..fs..inode..Inode$GT$17h8786fe1a2a287832E>
    80002092:	a009                	j	80002094 <.LBB1_239+0x74>
    80002094:	4501                	li	a0,0
    80002096:	54a107a3          	sb	a0,1359(sp)
    8000209a:	1d28                	addi	a0,sp,696
    8000209c:	00005097          	auipc	ra,0x5
    800020a0:	f62080e7          	jalr	-158(ra) # 80006ffe <_ZN4core3ptr78drop_in_place$LT$alloc..boxed..Box$LT$kernel..process..elf..ProgHeader$GT$$GT$17h18632e5365e45018E>
    800020a4:	a009                	j	800020a6 <.LBB1_239+0x86>
    800020a6:	1d08                	addi	a0,sp,688
    800020a8:	00005097          	auipc	ra,0x5
    800020ac:	f38080e7          	jalr	-200(ra) # 80006fe0 <_ZN4core3ptr77drop_in_place$LT$alloc..boxed..Box$LT$kernel..process..elf..ElfHeader$GT$$GT$17hf970e769dc617072E>
    800020b0:	a025                	j	800020d8 <.LBB1_239+0xb8>
    800020b2:	4501                	li	a0,0
    800020b4:	54a10723          	sb	a0,1358(sp)
    800020b8:	a0b9                	j	80002106 <.LBB1_239+0xe6>
    800020ba:	4501                	li	a0,0
    800020bc:	54a107a3          	sb	a0,1359(sp)
    800020c0:	1d28                	addi	a0,sp,696
    800020c2:	00005097          	auipc	ra,0x5
    800020c6:	f3c080e7          	jalr	-196(ra) # 80006ffe <_ZN4core3ptr78drop_in_place$LT$alloc..boxed..Box$LT$kernel..process..elf..ProgHeader$GT$$GT$17h18632e5365e45018E>
    800020ca:	a009                	j	800020cc <.LBB1_239+0xac>
    800020cc:	1d08                	addi	a0,sp,688
    800020ce:	00005097          	auipc	ra,0x5
    800020d2:	f12080e7          	jalr	-238(ra) # 80006fe0 <_ZN4core3ptr77drop_in_place$LT$alloc..boxed..Box$LT$kernel..process..elf..ElfHeader$GT$$GT$17hf970e769dc617072E>
    800020d6:	a009                	j	800020d8 <.LBB1_239+0xb8>
    800020d8:	60813083          	ld	ra,1544(sp)
    800020dc:	61010113          	addi	sp,sp,1552
    800020e0:	8082                	ret
    800020e2:	44810513          	addi	a0,sp,1096
    800020e6:	00005097          	auipc	ra,0x5
    800020ea:	fc8080e7          	jalr	-56(ra) # 800070ae <_ZN4core3ptr96drop_in_place$LT$kernel..lock..sleeplock..SleepLockGuard$LT$kernel..fs..inode..InodeData$GT$$GT$17h00d5c02cf687ef41E>
    800020ee:	b7d1                	j	800020b2 <.LBB1_239+0x92>
    800020f0:	54e14503          	lbu	a0,1358(sp)
    800020f4:	8905                	andi	a0,a0,1
    800020f6:	f575                	bnez	a0,800020e2 <.LBB1_239+0xc2>
    800020f8:	bf6d                	j	800020b2 <.LBB1_239+0x92>
    800020fa:	0f88                	addi	a0,sp,976
    800020fc:	00005097          	auipc	ra,0x5
    80002100:	dde080e7          	jalr	-546(ra) # 80006eda <_ZN4core3ptr45drop_in_place$LT$kernel..fs..inode..Inode$GT$17h8786fe1a2a287832E>
    80002104:	bf5d                	j	800020ba <.LBB1_239+0x9a>
    80002106:	54f14503          	lbu	a0,1359(sp)
    8000210a:	8905                	andi	a0,a0,1
    8000210c:	f57d                	bnez	a0,800020fa <.LBB1_239+0xda>
    8000210e:	b775                	j	800020ba <.LBB1_239+0x9a>

0000000080002110 <.LBB1_240>:
                if ph.vaddr + ph.mem_size < ph.vaddr {
    80002110:	00023517          	auipc	a0,0x23
    80002114:	06050513          	addi	a0,a0,96 # 80025170 <str.1>

0000000080002118 <.LBB1_241>:
    80002118:	00023617          	auipc	a2,0x23
    8000211c:	31060613          	addi	a2,a2,784 # 80025428 <.L__unnamed_26>
    80002120:	45f1                	li	a1,28
    80002122:	00020097          	auipc	ra,0x20
    80002126:	fda080e7          	jalr	-38(ra) # 800220fc <_ZN4core9panicking5panic17h153a4ce3c60ede6bE>
	...

000000008000212c <.LBB1_242>:
                .uvm_alloc(size, ph.vaddr + ph.mem_size)
    8000212c:	00023517          	auipc	a0,0x23
    80002130:	04450513          	addi	a0,a0,68 # 80025170 <str.1>

0000000080002134 <.LBB1_243>:
    80002134:	00023617          	auipc	a2,0x23
    80002138:	32c60613          	addi	a2,a2,812 # 80025460 <.L__unnamed_27>
    8000213c:	45f1                	li	a1,28
    8000213e:	00020097          	auipc	ra,0x20
    80002142:	fbe080e7          	jalr	-66(ra) # 800220fc <_ZN4core9panicking5panic17h153a4ce3c60ede6bE>
	...

0000000080002148 <.LBB1_244>:
            off += size_of::<ProgHeader>();
    80002148:	00023517          	auipc	a0,0x23
    8000214c:	02850513          	addi	a0,a0,40 # 80025170 <str.1>

0000000080002150 <.LBB1_245>:
    80002150:	00023617          	auipc	a2,0x23
    80002154:	38060613          	addi	a2,a2,896 # 800254d0 <.L__unnamed_28>
    80002158:	45f1                	li	a1,28
    8000215a:	00020097          	auipc	ra,0x20
    8000215e:	fa2080e7          	jalr	-94(ra) # 800220fc <_ZN4core9panicking5panic17h153a4ce3c60ede6bE>
	...

0000000080002164 <.LBB1_246>:
                .uvm_alloc(size, size + 2 * PGSIZE) {
    80002164:	00023517          	auipc	a0,0x23
    80002168:	00c50513          	addi	a0,a0,12 # 80025170 <str.1>

000000008000216c <.LBB1_247>:
    8000216c:	00023617          	auipc	a2,0x23
    80002170:	3cc60613          	addi	a2,a2,972 # 80025538 <.L__unnamed_29>
    80002174:	45f1                	li	a1,28
    80002176:	00020097          	auipc	ra,0x20
    8000217a:	f86080e7          	jalr	-122(ra) # 800220fc <_ZN4core9panicking5panic17h153a4ce3c60ede6bE>
	...

0000000080002180 <.LBB1_248>:
        page_table.uvm_clear(VirtualAddress::new(size - 2 * PGSIZE));
    80002180:	00023517          	auipc	a0,0x23
    80002184:	f9050513          	addi	a0,a0,-112 # 80025110 <str.0>

0000000080002188 <.LBB1_249>:
    80002188:	00023617          	auipc	a2,0x23
    8000218c:	3c860613          	addi	a2,a2,968 # 80025550 <.L__unnamed_30>
    80002190:	02100593          	li	a1,33
    80002194:	00020097          	auipc	ra,0x20
    80002198:	f68080e7          	jalr	-152(ra) # 800220fc <_ZN4core9panicking5panic17h153a4ce3c60ede6bE>
	...

000000008000219e <.LBB1_250>:
        stack_base = sp - PGSIZE;
    8000219e:	00023517          	auipc	a0,0x23
    800021a2:	f7250513          	addi	a0,a0,-142 # 80025110 <str.0>

00000000800021a6 <.LBB1_251>:
    800021a6:	00023617          	auipc	a2,0x23
    800021aa:	3c260613          	addi	a2,a2,962 # 80025568 <.L__unnamed_31>
    800021ae:	02100593          	li	a1,33
    800021b2:	00020097          	auipc	ra,0x20
    800021b6:	f4a080e7          	jalr	-182(ra) # 800220fc <_ZN4core9panicking5panic17h153a4ce3c60ede6bE>
    800021ba:	0000                	unimp
            if argv[argc] as usize == 0x0 { break; }
    800021bc:	28013583          	ld	a1,640(sp)
    800021c0:	653a                	ld	a0,392(sp)

00000000800021c2 <.LBB1_252>:
    800021c2:	00023617          	auipc	a2,0x23
    800021c6:	3be60613          	addi	a2,a2,958 # 80025580 <.L__unnamed_32>
    800021ca:	00020097          	auipc	ra,0x20
    800021ce:	f5e080e7          	jalr	-162(ra) # 80022128 <_ZN4core9panicking18panic_bounds_check17h8e071db613335003E>
    800021d2:	0000                	unimp
            sp -= str_len(argv[argc]) + 1;
    800021d4:	28013583          	ld	a1,640(sp)
    800021d8:	7576                	ld	a0,376(sp)

00000000800021da <.LBB1_253>:
    800021da:	00023617          	auipc	a2,0x23
    800021de:	3be60613          	addi	a2,a2,958 # 80025598 <.L__unnamed_33>
    800021e2:	00020097          	auipc	ra,0x20
    800021e6:	f46080e7          	jalr	-186(ra) # 80022128 <_ZN4core9panicking18panic_bounds_check17h8e071db613335003E>
	...

00000000800021ec <.LBB1_254>:
    800021ec:	00023517          	auipc	a0,0x23
    800021f0:	f8450513          	addi	a0,a0,-124 # 80025170 <str.1>

00000000800021f4 <.LBB1_255>:
    800021f4:	00023617          	auipc	a2,0x23
    800021f8:	3bc60613          	addi	a2,a2,956 # 800255b0 <.L__unnamed_34>
    800021fc:	45f1                	li	a1,28
    800021fe:	00020097          	auipc	ra,0x20
    80002202:	efe080e7          	jalr	-258(ra) # 800220fc <_ZN4core9panicking5panic17h153a4ce3c60ede6bE>
	...

0000000080002208 <.LBB1_256>:
    80002208:	00023517          	auipc	a0,0x23
    8000220c:	f0850513          	addi	a0,a0,-248 # 80025110 <str.0>

0000000080002210 <.LBB1_257>:
    80002210:	00023617          	auipc	a2,0x23
    80002214:	3b860613          	addi	a2,a2,952 # 800255c8 <.L__unnamed_35>
    80002218:	02100593          	li	a1,33
    8000221c:	00020097          	auipc	ra,0x20
    80002220:	ee0080e7          	jalr	-288(ra) # 800220fc <_ZN4core9panicking5panic17h153a4ce3c60ede6bE>
    80002224:	0000                	unimp
                        argv[argc] as *mut u8, 
    80002226:	28013583          	ld	a1,640(sp)
    8000222a:	6556                	ld	a0,336(sp)

000000008000222c <.LBB1_258>:
    8000222c:	00023617          	auipc	a2,0x23
    80002230:	47460613          	addi	a2,a2,1140 # 800256a0 <.L__unnamed_36>
    80002234:	00020097          	auipc	ra,0x20
    80002238:	ef4080e7          	jalr	-268(ra) # 80022128 <_ZN4core9panicking18panic_bounds_check17h8e071db613335003E>
    8000223c:	0000                	unimp
                        str_len(argv[argc])
    8000223e:	28013583          	ld	a1,640(sp)
    80002242:	6516                	ld	a0,320(sp)

0000000080002244 <.LBB1_259>:
    80002244:	00023617          	auipc	a2,0x23
    80002248:	47460613          	addi	a2,a2,1140 # 800256b8 <.L__unnamed_37>
    8000224c:	00020097          	auipc	ra,0x20
    80002250:	edc080e7          	jalr	-292(ra) # 80022128 <_ZN4core9panicking18panic_bounds_check17h8e071db613335003E>
    80002254:	0000                	unimp
                    str_len(argv[argc]) + 1,
    80002256:	28013583          	ld	a1,640(sp)
    8000225a:	6552                	ld	a0,272(sp)

000000008000225c <.LBB1_260>:
    8000225c:	00023617          	auipc	a2,0x23
    80002260:	47460613          	addi	a2,a2,1140 # 800256d0 <.L__unnamed_38>
    80002264:	00020097          	auipc	ra,0x20
    80002268:	ec4080e7          	jalr	-316(ra) # 80022128 <_ZN4core9panicking18panic_bounds_check17h8e071db613335003E>
	...

000000008000226e <.LBB1_261>:
    8000226e:	00023517          	auipc	a0,0x23
    80002272:	f0250513          	addi	a0,a0,-254 # 80025170 <str.1>

0000000080002276 <.LBB1_262>:
    80002276:	00023617          	auipc	a2,0x23
    8000227a:	47260613          	addi	a2,a2,1138 # 800256e8 <.L__unnamed_39>
    8000227e:	45f1                	li	a1,28
    80002280:	00020097          	auipc	ra,0x20
    80002284:	e7c080e7          	jalr	-388(ra) # 800220fc <_ZN4core9panicking5panic17h153a4ce3c60ede6bE>
    80002288:	0000                	unimp
            user_stack[argc] = sp;
    8000228a:	754e                	ld	a0,240(sp)

000000008000228c <.LBB1_263>:
    8000228c:	00023617          	auipc	a2,0x23
    80002290:	48c60613          	addi	a2,a2,1164 # 80025718 <.L__unnamed_40>
    80002294:	02000593          	li	a1,32
    80002298:	00020097          	auipc	ra,0x20
    8000229c:	e90080e7          	jalr	-368(ra) # 80022128 <_ZN4core9panicking18panic_bounds_check17h8e071db613335003E>
	...

00000000800022a2 <.LBB1_264>:
            argc += 1;
    800022a2:	00023517          	auipc	a0,0x23
    800022a6:	ece50513          	addi	a0,a0,-306 # 80025170 <str.1>

00000000800022aa <.LBB1_265>:
    800022aa:	00023617          	auipc	a2,0x23
    800022ae:	48660613          	addi	a2,a2,1158 # 80025730 <.L__unnamed_41>
    800022b2:	45f1                	li	a1,28
    800022b4:	00020097          	auipc	ra,0x20
    800022b8:	e48080e7          	jalr	-440(ra) # 800220fc <_ZN4core9panicking5panic17h153a4ce3c60ede6bE>
    800022bc:	0000                	unimp
    user_stack[argc] = 0;
    800022be:	651a                	ld	a0,384(sp)

00000000800022c0 <.LBB1_266>:
    800022c0:	00023617          	auipc	a2,0x23
    800022c4:	48860613          	addi	a2,a2,1160 # 80025748 <.L__unnamed_42>
    800022c8:	02000593          	li	a1,32
    800022cc:	00020097          	auipc	ra,0x20
    800022d0:	e5c080e7          	jalr	-420(ra) # 80022128 <_ZN4core9panicking18panic_bounds_check17h8e071db613335003E>
	...

00000000800022d6 <.LBB1_267>:
    sp -= (argc + 1) * size_of::<usize>();
    800022d6:	00023517          	auipc	a0,0x23
    800022da:	e9a50513          	addi	a0,a0,-358 # 80025170 <str.1>

00000000800022de <.LBB1_268>:
    800022de:	00023617          	auipc	a2,0x23
    800022e2:	48260613          	addi	a2,a2,1154 # 80025760 <.L__unnamed_43>
    800022e6:	45f1                	li	a1,28
    800022e8:	00020097          	auipc	ra,0x20
    800022ec:	e14080e7          	jalr	-492(ra) # 800220fc <_ZN4core9panicking5panic17h153a4ce3c60ede6bE>
	...

00000000800022f2 <.LBB1_269>:
    800022f2:	00023517          	auipc	a0,0x23
    800022f6:	48e50513          	addi	a0,a0,1166 # 80025780 <str.2>

00000000800022fa <.LBB1_270>:
    800022fa:	00023617          	auipc	a2,0x23
    800022fe:	46660613          	addi	a2,a2,1126 # 80025760 <.L__unnamed_43>
    80002302:	02100593          	li	a1,33
    80002306:	00020097          	auipc	ra,0x20
    8000230a:	df6080e7          	jalr	-522(ra) # 800220fc <_ZN4core9panicking5panic17h153a4ce3c60ede6bE>
	...

0000000080002310 <.LBB1_271>:
    80002310:	00023517          	auipc	a0,0x23
    80002314:	e0050513          	addi	a0,a0,-512 # 80025110 <str.0>

0000000080002318 <.LBB1_272>:
    80002318:	00023617          	auipc	a2,0x23
    8000231c:	49060613          	addi	a2,a2,1168 # 800257a8 <.L__unnamed_44>
    80002320:	02100593          	li	a1,33
    80002324:	00020097          	auipc	ra,0x20
    80002328:	dd8080e7          	jalr	-552(ra) # 800220fc <_ZN4core9panicking5panic17h153a4ce3c60ede6bE>
	...

000000008000232e <.LBB1_273>:
            (argc + 1)*size_of::<usize>()
    8000232e:	00023517          	auipc	a0,0x23
    80002332:	e4250513          	addi	a0,a0,-446 # 80025170 <str.1>

0000000080002336 <.LBB1_274>:
    80002336:	00023617          	auipc	a2,0x23
    8000233a:	48a60613          	addi	a2,a2,1162 # 800257c0 <.L__unnamed_45>
    8000233e:	45f1                	li	a1,28
    80002340:	00020097          	auipc	ra,0x20
    80002344:	dbc080e7          	jalr	-580(ra) # 800220fc <_ZN4core9panicking5panic17h153a4ce3c60ede6bE>
	...

000000008000234a <.LBB1_275>:
    8000234a:	00023517          	auipc	a0,0x23
    8000234e:	43650513          	addi	a0,a0,1078 # 80025780 <str.2>

0000000080002352 <.LBB1_276>:
    80002352:	00023617          	auipc	a2,0x23
    80002356:	46e60613          	addi	a2,a2,1134 # 800257c0 <.L__unnamed_45>
    8000235a:	02100593          	li	a1,33
    8000235e:	00020097          	auipc	ra,0x20
    80002362:	d9e080e7          	jalr	-610(ra) # 800220fc <_ZN4core9panicking5panic17h153a4ce3c60ede6bE>
	...

0000000080002368 <.LBB1_277>:
            (argc + 1)*size_of::<usize>()
    80002368:	00023517          	auipc	a0,0x23
    8000236c:	e0850513          	addi	a0,a0,-504 # 80025170 <str.1>

0000000080002370 <.LBB1_278>:
    80002370:	00023617          	auipc	a2,0x23
    80002374:	46860613          	addi	a2,a2,1128 # 800257d8 <.L__unnamed_46>
    80002378:	45f1                	li	a1,28
    8000237a:	00020097          	auipc	ra,0x20
    8000237e:	d82080e7          	jalr	-638(ra) # 800220fc <_ZN4core9panicking5panic17h153a4ce3c60ede6bE>
	...

0000000080002384 <.LBB1_279>:
    80002384:	00023517          	auipc	a0,0x23
    80002388:	3fc50513          	addi	a0,a0,1020 # 80025780 <str.2>

000000008000238c <.LBB1_280>:
    8000238c:	00023617          	auipc	a2,0x23
    80002390:	44c60613          	addi	a2,a2,1100 # 800257d8 <.L__unnamed_46>
    80002394:	02100593          	li	a1,33
    80002398:	00020097          	auipc	ra,0x20
    8000239c:	d64080e7          	jalr	-668(ra) # 800220fc <_ZN4core9panicking5panic17h153a4ce3c60ede6bE>
	...

Disassembly of section .text._ZN6kernel7process3elf8align_sp17h0cb3435f5c58b65bE:

00000000800023a2 <_ZN6kernel7process3elf8align_sp17h0cb3435f5c58b65bE>:


#[inline]
fn align_sp(sp: usize) -> usize {
    800023a2:	1141                	addi	sp,sp,-16
    800023a4:	e42a                	sd	a0,8(sp)
    sp - (sp % 16)
    800023a6:	ff057593          	andi	a1,a0,-16
    800023aa:	e02e                	sd	a1,0(sp)
    800023ac:	00b56663          	bltu	a0,a1,800023b8 <.LBB2_3>
    800023b0:	a009                	j	800023b2 <_ZN6kernel7process3elf8align_sp17h0cb3435f5c58b65bE+0x10>
    800023b2:	6502                	ld	a0,0(sp)
    800023b4:	0141                	addi	sp,sp,16
    800023b6:	8082                	ret

00000000800023b8 <.LBB2_3>:
    sp - (sp % 16)
    800023b8:	00023517          	auipc	a0,0x23
    800023bc:	d5850513          	addi	a0,a0,-680 # 80025110 <str.0>

00000000800023c0 <.LBB2_4>:
    800023c0:	00023617          	auipc	a2,0x23
    800023c4:	46060613          	addi	a2,a2,1120 # 80025820 <.L__unnamed_47>
    800023c8:	02100593          	li	a1,33
    800023cc:	00020097          	auipc	ra,0x20
    800023d0:	d30080e7          	jalr	-720(ra) # 800220fc <_ZN4core9panicking5panic17h153a4ce3c60ede6bE>
	...

Disassembly of section .text._ZN50_$LT$T$u20$as$u20$core..convert..Into$LT$U$GT$$GT$4into17hf28a3b70ff934ae9E:

00000000800023d6 <_ZN50_$LT$T$u20$as$u20$core..convert..Into$LT$U$GT$$GT$4into17hf28a3b70ff934ae9E>:
#[stable(feature = "rust1", since = "1.0.0")]
impl<T, U> Into<U> for T
where
    U: From<T>,
{
    fn into(self) -> U {
    800023d6:	1101                	addi	sp,sp,-32
    800023d8:	ec06                	sd	ra,24(sp)
    800023da:	e82a                	sd	a0,16(sp)
        U::from(self)
    800023dc:	0000d097          	auipc	ra,0xd
    800023e0:	1a2080e7          	jalr	418(ra) # 8000f57e <_ZN98_$LT$core..ptr..non_null..NonNull$LT$T$GT$$u20$as$u20$core..convert..From$LT$$RF$mut$u20$T$GT$$GT$4from17h99a3612f25da96c9E>
    800023e4:	e42a                	sd	a0,8(sp)
    800023e6:	a009                	j	800023e8 <_ZN50_$LT$T$u20$as$u20$core..convert..Into$LT$U$GT$$GT$4into17hf28a3b70ff934ae9E+0x12>
    }
    800023e8:	6522                	ld	a0,8(sp)
    800023ea:	60e2                	ld	ra,24(sp)
    800023ec:	6105                	addi	sp,sp,32
    800023ee:	8082                	ret

Disassembly of section .text._ZN5alloc4sync12Arc$LT$T$GT$10from_inner17ha9d20dd6b0e60056E:

00000000800023f0 <_ZN5alloc4sync12Arc$LT$T$GT$10from_inner17ha9d20dd6b0e60056E>:

#[unstable(feature = "dispatch_from_dyn", issue = "none")]
impl<T: ?Sized + Unsize<U>, U: ?Sized> DispatchFromDyn<Arc<U>> for Arc<T> {}

impl<T: ?Sized> Arc<T> {
    fn from_inner(ptr: NonNull<ArcInner<T>>) -> Self {
    800023f0:	1141                	addi	sp,sp,-16
    800023f2:	e42a                	sd	a0,8(sp)
        Self { ptr, phantom: PhantomData }
    800023f4:	e02a                	sd	a0,0(sp)
    }
    800023f6:	0141                	addi	sp,sp,16
    800023f8:	8082                	ret

Disassembly of section .text._ZN5alloc4sync12Arc$LT$T$GT$17get_mut_unchecked17hb9140ecfe8505044E:

00000000800023fa <_ZN5alloc4sync12Arc$LT$T$GT$17get_mut_unchecked17hb9140ecfe8505044E>:
    /// }
    /// assert_eq!(*x, "foo");
    /// ```
    #[inline]
    #[unstable(feature = "get_mut_unchecked", issue = "63292")]
    pub unsafe fn get_mut_unchecked(this: &mut Self) -> &mut T {
    800023fa:	1101                	addi	sp,sp,-32
    800023fc:	ec06                	sd	ra,24(sp)
    800023fe:	e82a                	sd	a0,16(sp)
        // We are careful to *not* create a reference covering the "count" fields, as
        // this would alias with concurrent access to the reference counts (e.g. by `Weak`).
        unsafe { &mut (*this.ptr.as_ptr()).data }
    80002400:	6108                	ld	a0,0(a0)
    80002402:	0000d097          	auipc	ra,0xd
    80002406:	070080e7          	jalr	112(ra) # 8000f472 <_ZN4core3ptr8non_null16NonNull$LT$T$GT$6as_ptr17hc25f2e50aadb25dbE>
    8000240a:	e42a                	sd	a0,8(sp)
    8000240c:	a009                	j	8000240e <_ZN5alloc4sync12Arc$LT$T$GT$17get_mut_unchecked17hb9140ecfe8505044E+0x14>
    8000240e:	6522                	ld	a0,8(sp)
    80002410:	0541                	addi	a0,a0,16
    }
    80002412:	60e2                	ld	ra,24(sp)
    80002414:	6105                	addi	sp,sp,32
    80002416:	8082                	ret

Disassembly of section .text._ZN5alloc4sync12Arc$LT$T$GT$3new17h678276cd59118dbbE:

0000000080002418 <_ZN5alloc4sync12Arc$LT$T$GT$3new17h678276cd59118dbbE>:
    pub fn new(data: T) -> Arc<T> {
    80002418:	7175                	addi	sp,sp,-144
    8000241a:	e506                	sd	ra,136(sp)
    8000241c:	ec2a                	sd	a0,24(sp)
    8000241e:	04800513          	li	a0,72
    80002422:	45a1                	li	a1,8
        let x: Box<_> = box ArcInner {
    80002424:	0000a097          	auipc	ra,0xa
    80002428:	948080e7          	jalr	-1720(ra) # 8000bd6c <_ZN5alloc5alloc15exchange_malloc17hc8acd7fb5c1fe184E>
            strong: atomic::AtomicUsize::new(1),
    8000242c:	f02a                	sd	a0,32(sp)
    8000242e:	4505                	li	a0,1
    80002430:	00002097          	auipc	ra,0x2
    80002434:	2f4080e7          	jalr	756(ra) # 80004724 <_ZN4core4sync6atomic11AtomicUsize3new17hb5d2654a6be55e11E>
    80002438:	f8aa                	sd	a0,112(sp)
    8000243a:	f42a                	sd	a0,40(sp)
    8000243c:	a009                	j	8000243e <_ZN5alloc4sync12Arc$LT$T$GT$3new17h678276cd59118dbbE+0x26>
    8000243e:	4505                	li	a0,1
            weak: atomic::AtomicUsize::new(1),
    80002440:	00002097          	auipc	ra,0x2
    80002444:	2e4080e7          	jalr	740(ra) # 80004724 <_ZN4core4sync6atomic11AtomicUsize3new17hb5d2654a6be55e11E>
    80002448:	fcaa                	sd	a0,120(sp)
    8000244a:	f82a                	sd	a0,48(sp)
    8000244c:	a009                	j	8000244e <_ZN5alloc4sync12Arc$LT$T$GT$3new17h678276cd59118dbbE+0x36>
            data,
    8000244e:	7502                	ld	a0,32(sp)
    80002450:	65e2                	ld	a1,24(sp)
    80002452:	7990                	ld	a2,48(a1)
    80002454:	f4b2                	sd	a2,104(sp)
    80002456:	7590                	ld	a2,40(a1)
    80002458:	f0b2                	sd	a2,96(sp)
    8000245a:	7190                	ld	a2,32(a1)
    8000245c:	ecb2                	sd	a2,88(sp)
    8000245e:	6d90                	ld	a2,24(a1)
    80002460:	e8b2                	sd	a2,80(sp)
    80002462:	6990                	ld	a2,16(a1)
    80002464:	e4b2                	sd	a2,72(sp)
    80002466:	6590                	ld	a2,8(a1)
    80002468:	e0b2                	sd	a2,64(sp)
    8000246a:	618c                	ld	a1,0(a1)
    8000246c:	fc2e                	sd	a1,56(sp)
        let x: Box<_> = box ArcInner {
    8000246e:	75a2                	ld	a1,40(sp)
    80002470:	e10c                	sd	a1,0(a0)
    80002472:	75c2                	ld	a1,48(sp)
    80002474:	e50c                	sd	a1,8(a0)
    80002476:	75a6                	ld	a1,104(sp)
    80002478:	e12c                	sd	a1,64(a0)
    8000247a:	7586                	ld	a1,96(sp)
    8000247c:	fd0c                	sd	a1,56(a0)
    8000247e:	65e6                	ld	a1,88(sp)
    80002480:	f90c                	sd	a1,48(a0)
    80002482:	65c6                	ld	a1,80(sp)
    80002484:	f50c                	sd	a1,40(a0)
    80002486:	65a6                	ld	a1,72(sp)
    80002488:	f10c                	sd	a1,32(a0)
    8000248a:	6586                	ld	a1,64(sp)
    8000248c:	ed0c                	sd	a1,24(a0)
    8000248e:	75e2                	ld	a1,56(sp)
    80002490:	e90c                	sd	a1,16(a0)
    80002492:	e12a                	sd	a0,128(sp)
        Self::from_inner(Box::leak(x).into())
    80002494:	0001a097          	auipc	ra,0x1a
    80002498:	c9e080e7          	jalr	-866(ra) # 8001c132 <_ZN5alloc5boxed16Box$LT$T$C$A$GT$4leak17ha0a7030531762e6fE>
    8000249c:	e82a                	sd	a0,16(sp)
    8000249e:	a009                	j	800024a0 <_ZN5alloc4sync12Arc$LT$T$GT$3new17h678276cd59118dbbE+0x88>
    800024a0:	6542                	ld	a0,16(sp)
    800024a2:	00000097          	auipc	ra,0x0
    800024a6:	f34080e7          	jalr	-204(ra) # 800023d6 <_ZN50_$LT$T$u20$as$u20$core..convert..Into$LT$U$GT$$GT$4into17hf28a3b70ff934ae9E>
    800024aa:	e42a                	sd	a0,8(sp)
    800024ac:	a009                	j	800024ae <_ZN5alloc4sync12Arc$LT$T$GT$3new17h678276cd59118dbbE+0x96>
    800024ae:	6522                	ld	a0,8(sp)
    800024b0:	00000097          	auipc	ra,0x0
    800024b4:	f40080e7          	jalr	-192(ra) # 800023f0 <_ZN5alloc4sync12Arc$LT$T$GT$10from_inner17ha9d20dd6b0e60056E>
    800024b8:	e02a                	sd	a0,0(sp)
    800024ba:	a009                	j	800024bc <_ZN5alloc4sync12Arc$LT$T$GT$3new17h678276cd59118dbbE+0xa4>
    }
    800024bc:	6502                	ld	a0,0(sp)
    800024be:	60aa                	ld	ra,136(sp)
    800024c0:	6149                	addi	sp,sp,144
    800024c2:	8082                	ret

Disassembly of section .text._ZN5alloc4sync12Arc$LT$T$GT$5inner17h9bfe4db1ecae9d98E:

00000000800024c4 <_ZN5alloc4sync12Arc$LT$T$GT$5inner17h9bfe4db1ecae9d98E>:
    fn inner(&self) -> &ArcInner<T> {
    800024c4:	1101                	addi	sp,sp,-32
    800024c6:	ec06                	sd	ra,24(sp)
    800024c8:	e82a                	sd	a0,16(sp)
        unsafe { self.ptr.as_ref() }
    800024ca:	0000d097          	auipc	ra,0xd
    800024ce:	fc0080e7          	jalr	-64(ra) # 8000f48a <_ZN4core3ptr8non_null16NonNull$LT$T$GT$6as_ref17hb658835e636047c4E>
    800024d2:	e42a                	sd	a0,8(sp)
    800024d4:	a009                	j	800024d6 <_ZN5alloc4sync12Arc$LT$T$GT$5inner17h9bfe4db1ecae9d98E+0x12>
    }
    800024d6:	6522                	ld	a0,8(sp)
    800024d8:	60e2                	ld	ra,24(sp)
    800024da:	6105                	addi	sp,sp,32
    800024dc:	8082                	ret

Disassembly of section .text._ZN5alloc4sync12Arc$LT$T$GT$9drop_slow17hcb02a55d90430c0dE:

00000000800024de <_ZN5alloc4sync12Arc$LT$T$GT$9drop_slow17hcb02a55d90430c0dE>:
    unsafe fn drop_slow(&mut self) {
    800024de:	7179                	addi	sp,sp,-48
    800024e0:	f406                	sd	ra,40(sp)
    800024e2:	e42a                	sd	a0,8(sp)
    800024e4:	f02a                	sd	a0,32(sp)
        unsafe { ptr::drop_in_place(Self::get_mut_unchecked(self)) };
    800024e6:	00000097          	auipc	ra,0x0
    800024ea:	f14080e7          	jalr	-236(ra) # 800023fa <_ZN5alloc4sync12Arc$LT$T$GT$17get_mut_unchecked17hb9140ecfe8505044E>
    800024ee:	e82a                	sd	a0,16(sp)
    800024f0:	a009                	j	800024f2 <_ZN5alloc4sync12Arc$LT$T$GT$9drop_slow17hcb02a55d90430c0dE+0x14>
    800024f2:	6542                	ld	a0,16(sp)
    800024f4:	00005097          	auipc	ra,0x5
    800024f8:	9ce080e7          	jalr	-1586(ra) # 80006ec2 <_ZN4core3ptr44drop_in_place$LT$kernel..fs..file..VFile$GT$17h7a3c9775c1583e88E>
    800024fc:	a009                	j	800024fe <_ZN5alloc4sync12Arc$LT$T$GT$9drop_slow17hcb02a55d90430c0dE+0x20>
        drop(Weak { ptr: self.ptr });
    800024fe:	6522                	ld	a0,8(sp)
    80002500:	6108                	ld	a0,0(a0)
    80002502:	ec2a                	sd	a0,24(sp)
    80002504:	0001b097          	auipc	ra,0x1b
    80002508:	9c8080e7          	jalr	-1592(ra) # 8001cecc <_ZN4core3mem4drop17h4200387821e72e60E>
    8000250c:	a009                	j	8000250e <_ZN5alloc4sync12Arc$LT$T$GT$9drop_slow17hcb02a55d90430c0dE+0x30>
    }
    8000250e:	70a2                	ld	ra,40(sp)
    80002510:	6145                	addi	sp,sp,48
    80002512:	8082                	ret

Disassembly of section .text._ZN5alloc4sync13Weak$LT$T$GT$5inner17h5044bfde36c7c45eE:

0000000080002514 <_ZN5alloc4sync13Weak$LT$T$GT$5inner17h5044bfde36c7c45eE>:
    }

    /// Returns `None` when the pointer is dangling and there is no allocated `ArcInner`,
    /// (i.e., when this `Weak` was created by `Weak::new`).
    #[inline]
    fn inner(&self) -> Option<WeakInner<'_>> {
    80002514:	711d                	addi	sp,sp,-96
    80002516:	ec86                	sd	ra,88(sp)
    80002518:	ec2a                	sd	a0,24(sp)
    8000251a:	e4aa                	sd	a0,72(sp)
        if is_dangling(self.ptr.as_ptr()) {
    8000251c:	6108                	ld	a0,0(a0)
    8000251e:	0000d097          	auipc	ra,0xd
    80002522:	f54080e7          	jalr	-172(ra) # 8000f472 <_ZN4core3ptr8non_null16NonNull$LT$T$GT$6as_ptr17hc25f2e50aadb25dbE>
    80002526:	f02a                	sd	a0,32(sp)
    80002528:	a009                	j	8000252a <_ZN5alloc4sync13Weak$LT$T$GT$5inner17h5044bfde36c7c45eE+0x16>
    8000252a:	7502                	ld	a0,32(sp)
    8000252c:	0000a097          	auipc	ra,0xa
    80002530:	678080e7          	jalr	1656(ra) # 8000cba4 <_ZN5alloc2rc11is_dangling17hdc2075289302a6eaE>
    80002534:	e82a                	sd	a0,16(sp)
    80002536:	a009                	j	80002538 <_ZN5alloc4sync13Weak$LT$T$GT$5inner17h5044bfde36c7c45eE+0x24>
    80002538:	6542                	ld	a0,16(sp)
    8000253a:	4581                	li	a1,0
    8000253c:	00b50663          	beq	a0,a1,80002548 <_ZN5alloc4sync13Weak$LT$T$GT$5inner17h5044bfde36c7c45eE+0x34>
    80002540:	a009                	j	80002542 <_ZN5alloc4sync13Weak$LT$T$GT$5inner17h5044bfde36c7c45eE+0x2e>
    80002542:	4501                	li	a0,0
            None
    80002544:	f42a                	sd	a0,40(sp)
        if is_dangling(self.ptr.as_ptr()) {
    80002546:	a01d                	j	8000256c <_ZN5alloc4sync13Weak$LT$T$GT$5inner17h5044bfde36c7c45eE+0x58>
        } else {
            // We are careful to *not* create a reference covering the "data" field, as
            // the field may be mutated concurrently (for example, if the last `Arc`
            // is dropped, the data field will be dropped in-place).
            Some(unsafe {
                let ptr = self.ptr.as_ptr();
    80002548:	6562                	ld	a0,24(sp)
    8000254a:	6108                	ld	a0,0(a0)
    8000254c:	0000d097          	auipc	ra,0xd
    80002550:	f26080e7          	jalr	-218(ra) # 8000f472 <_ZN4core3ptr8non_null16NonNull$LT$T$GT$6as_ptr17hc25f2e50aadb25dbE>
    80002554:	85aa                	mv	a1,a0
    80002556:	e42e                	sd	a1,8(sp)
    80002558:	e8aa                	sd	a0,80(sp)
    8000255a:	a009                	j	8000255c <_ZN5alloc4sync13Weak$LT$T$GT$5inner17h5044bfde36c7c45eE+0x48>
                WeakInner { strong: &(*ptr).strong, weak: &(*ptr).weak }
    8000255c:	6522                	ld	a0,8(sp)
    8000255e:	00850593          	addi	a1,a0,8
    80002562:	fc2e                	sd	a1,56(sp)
    80002564:	e0aa                	sd	a0,64(sp)
            Some(unsafe {
    80002566:	f42e                	sd	a1,40(sp)
    80002568:	f82a                	sd	a0,48(sp)
        if is_dangling(self.ptr.as_ptr()) {
    8000256a:	a009                	j	8000256c <_ZN5alloc4sync13Weak$LT$T$GT$5inner17h5044bfde36c7c45eE+0x58>
            })
        }
    }
    8000256c:	7522                	ld	a0,40(sp)
    8000256e:	75c2                	ld	a1,48(sp)
    80002570:	60e6                	ld	ra,88(sp)
    80002572:	6125                	addi	sp,sp,96
    80002574:	8082                	ret

Disassembly of section .text._ZN64_$LT$alloc..sync..Arc$LT$T$GT$$u20$as$u20$core..clone..Clone$GT$5clone17hd600a08a186c4518E:

0000000080002576 <_ZN64_$LT$alloc..sync..Arc$LT$T$GT$$u20$as$u20$core..clone..Clone$GT$5clone17hd600a08a186c4518E>:
    fn clone(&self) -> Arc<T> {
    80002576:	7139                	addi	sp,sp,-64
    80002578:	fc06                	sd	ra,56(sp)
    8000257a:	e82a                	sd	a0,16(sp)
    8000257c:	f42a                	sd	a0,40(sp)
        let old_size = self.inner().strong.fetch_add(1, Relaxed);
    8000257e:	00000097          	auipc	ra,0x0
    80002582:	f46080e7          	jalr	-186(ra) # 800024c4 <_ZN5alloc4sync12Arc$LT$T$GT$5inner17h9bfe4db1ecae9d98E>
    80002586:	ec2a                	sd	a0,24(sp)
    80002588:	a009                	j	8000258a <_ZN64_$LT$alloc..sync..Arc$LT$T$GT$$u20$as$u20$core..clone..Clone$GT$5clone17hd600a08a186c4518E+0x14>
    8000258a:	6562                	ld	a0,24(sp)
    8000258c:	4601                	li	a2,0
    8000258e:	02c103a3          	sb	a2,39(sp)
    80002592:	4585                	li	a1,1
    80002594:	00002097          	auipc	ra,0x2
    80002598:	1ac080e7          	jalr	428(ra) # 80004740 <_ZN4core4sync6atomic11AtomicUsize9fetch_add17h9147f412b3f815f9E>
    8000259c:	85aa                	mv	a1,a0
    8000259e:	e42e                	sd	a1,8(sp)
    800025a0:	f82a                	sd	a0,48(sp)
    800025a2:	a009                	j	800025a4 <_ZN64_$LT$alloc..sync..Arc$LT$T$GT$$u20$as$u20$core..clone..Clone$GT$5clone17hd600a08a186c4518E+0x2e>
    800025a4:	65a2                	ld	a1,8(sp)
    800025a6:	557d                	li	a0,-1
        if old_size > MAX_REFCOUNT {
    800025a8:	00b54563          	blt	a0,a1,800025b2 <_ZN64_$LT$alloc..sync..Arc$LT$T$GT$$u20$as$u20$core..clone..Clone$GT$5clone17hd600a08a186c4518E+0x3c>
    800025ac:	a009                	j	800025ae <_ZN64_$LT$alloc..sync..Arc$LT$T$GT$$u20$as$u20$core..clone..Clone$GT$5clone17hd600a08a186c4518E+0x38>
            abort();
    800025ae:	0000                	unimp
    800025b0:	0000                	unimp
        Self::from_inner(self.ptr)
    800025b2:	6542                	ld	a0,16(sp)
    800025b4:	6108                	ld	a0,0(a0)
    800025b6:	00000097          	auipc	ra,0x0
    800025ba:	e3a080e7          	jalr	-454(ra) # 800023f0 <_ZN5alloc4sync12Arc$LT$T$GT$10from_inner17ha9d20dd6b0e60056E>
    800025be:	e02a                	sd	a0,0(sp)
    800025c0:	a009                	j	800025c2 <_ZN64_$LT$alloc..sync..Arc$LT$T$GT$$u20$as$u20$core..clone..Clone$GT$5clone17hd600a08a186c4518E+0x4c>
    }
    800025c2:	6502                	ld	a0,0(sp)
    800025c4:	70e2                	ld	ra,56(sp)
    800025c6:	6121                	addi	sp,sp,64
    800025c8:	8082                	ret

Disassembly of section .text._ZN69_$LT$alloc..sync..Arc$LT$T$GT$$u20$as$u20$core..ops..deref..Deref$GT$5deref17h7c280ba665690166E:

00000000800025ca <_ZN69_$LT$alloc..sync..Arc$LT$T$GT$$u20$as$u20$core..ops..deref..Deref$GT$5deref17h7c280ba665690166E>:
    fn deref(&self) -> &T {
    800025ca:	1101                	addi	sp,sp,-32
    800025cc:	ec06                	sd	ra,24(sp)
    800025ce:	e82a                	sd	a0,16(sp)
        &self.inner().data
    800025d0:	00000097          	auipc	ra,0x0
    800025d4:	ef4080e7          	jalr	-268(ra) # 800024c4 <_ZN5alloc4sync12Arc$LT$T$GT$5inner17h9bfe4db1ecae9d98E>
    800025d8:	e42a                	sd	a0,8(sp)
    800025da:	a009                	j	800025dc <_ZN69_$LT$alloc..sync..Arc$LT$T$GT$$u20$as$u20$core..ops..deref..Deref$GT$5deref17h7c280ba665690166E+0x12>
    800025dc:	6522                	ld	a0,8(sp)
    800025de:	0541                	addi	a0,a0,16
    }
    800025e0:	60e2                	ld	ra,24(sp)
    800025e2:	6105                	addi	sp,sp,32
    800025e4:	8082                	ret

Disassembly of section .text._ZN63_$LT$u8$u20$as$u20$alloc..vec..spec_from_elem..SpecFromElem$GT$9from_elem17h7bf881e84d821ad0E:

00000000800025e6 <_ZN63_$LT$u8$u20$as$u20$alloc..vec..spec_from_elem..SpecFromElem$GT$9from_elem17h7bf881e84d821ad0E>:
    }
}

impl SpecFromElem for u8 {
    #[inline]
    fn from_elem<A: Allocator>(elem: u8, n: usize, alloc: A) -> Vec<u8, A> {
    800025e6:	7159                	addi	sp,sp,-112
    800025e8:	f486                	sd	ra,104(sp)
    800025ea:	f032                	sd	a2,32(sp)
    800025ec:	f42a                	sd	a0,40(sp)
    800025ee:	0ff5f513          	andi	a0,a1,255
    800025f2:	86ae                	mv	a3,a1
    800025f4:	f836                	sd	a3,48(sp)
    800025f6:	04b10ba3          	sb	a1,87(sp)
    800025fa:	ecb2                	sd	a2,88(sp)
    800025fc:	4581                	li	a1,0
        if elem == 0 {
    800025fe:	00b51b63          	bne	a0,a1,80002614 <_ZN63_$LT$u8$u20$as$u20$alloc..vec..spec_from_elem..SpecFromElem$GT$9from_elem17h7bf881e84d821ad0E+0x2e>
    80002602:	a009                	j	80002604 <_ZN63_$LT$u8$u20$as$u20$alloc..vec..spec_from_elem..SpecFromElem$GT$9from_elem17h7bf881e84d821ad0E+0x1e>
            return Vec { buf: RawVec::with_capacity_zeroed_in(n, alloc), len: n };
    80002604:	7502                	ld	a0,32(sp)
    80002606:	00000097          	auipc	ra,0x0
    8000260a:	64e080e7          	jalr	1614(ra) # 80002c54 <_ZN5alloc7raw_vec19RawVec$LT$T$C$A$GT$23with_capacity_zeroed_in17hc0850ff3c2415cf8E>
    8000260e:	e82a                	sd	a0,16(sp)
    80002610:	ec2e                	sd	a1,24(sp)
    80002612:	a801                	j	80002622 <_ZN63_$LT$u8$u20$as$u20$alloc..vec..spec_from_elem..SpecFromElem$GT$9from_elem17h7bf881e84d821ad0E+0x3c>
        }
        unsafe {
            let mut v = Vec::with_capacity_in(n, alloc);
    80002614:	7582                	ld	a1,32(sp)
    80002616:	1828                	addi	a0,sp,56
    80002618:	00014097          	auipc	ra,0x14
    8000261c:	3fa080e7          	jalr	1018(ra) # 80016a12 <_ZN5alloc3vec16Vec$LT$T$C$A$GT$16with_capacity_in17hb324b531b744c1e4E>
    80002620:	a809                	j	80002632 <_ZN63_$LT$u8$u20$as$u20$alloc..vec..spec_from_elem..SpecFromElem$GT$9from_elem17h7bf881e84d821ad0E+0x4c>
            return Vec { buf: RawVec::with_capacity_zeroed_in(n, alloc), len: n };
    80002622:	7502                	ld	a0,32(sp)
    80002624:	75a2                	ld	a1,40(sp)
    80002626:	6662                	ld	a2,24(sp)
    80002628:	66c2                	ld	a3,16(sp)
    8000262a:	e194                	sd	a3,0(a1)
    8000262c:	e590                	sd	a2,8(a1)
    8000262e:	e988                	sd	a0,16(a1)
            ptr::write_bytes(v.as_mut_ptr(), elem, n);
            v.set_len(n);
            v
        }
    }
    80002630:	a83d                	j	8000266e <_ZN63_$LT$u8$u20$as$u20$alloc..vec..spec_from_elem..SpecFromElem$GT$9from_elem17h7bf881e84d821ad0E+0x88>
    80002632:	1828                	addi	a0,sp,56
            ptr::write_bytes(v.as_mut_ptr(), elem, n);
    80002634:	00014097          	auipc	ra,0x14
    80002638:	32a080e7          	jalr	810(ra) # 8001695e <_ZN5alloc3vec16Vec$LT$T$C$A$GT$10as_mut_ptr17h2d512420264161fdE>
    8000263c:	e42a                	sd	a0,8(sp)
    8000263e:	a009                	j	80002640 <_ZN63_$LT$u8$u20$as$u20$alloc..vec..spec_from_elem..SpecFromElem$GT$9from_elem17h7bf881e84d821ad0E+0x5a>
    80002640:	7602                	ld	a2,32(sp)
    80002642:	75c2                	ld	a1,48(sp)
    80002644:	6522                	ld	a0,8(sp)
    80002646:	0001f097          	auipc	ra,0x1f
    8000264a:	370080e7          	jalr	880(ra) # 800219b6 <_ZN4core10intrinsics11write_bytes17hfabd30e5bfcb1b55E>
    8000264e:	a009                	j	80002650 <_ZN63_$LT$u8$u20$as$u20$alloc..vec..spec_from_elem..SpecFromElem$GT$9from_elem17h7bf881e84d821ad0E+0x6a>
            v.set_len(n);
    80002650:	7582                	ld	a1,32(sp)
    80002652:	1828                	addi	a0,sp,56
    80002654:	00014097          	auipc	ra,0x14
    80002658:	4f6080e7          	jalr	1270(ra) # 80016b4a <_ZN5alloc3vec16Vec$LT$T$C$A$GT$7set_len17h69219cf242af5cbaE>
    8000265c:	a009                	j	8000265e <_ZN63_$LT$u8$u20$as$u20$alloc..vec..spec_from_elem..SpecFromElem$GT$9from_elem17h7bf881e84d821ad0E+0x78>
            v
    8000265e:	75a2                	ld	a1,40(sp)
    80002660:	6526                	ld	a0,72(sp)
    80002662:	e988                	sd	a0,16(a1)
    80002664:	6506                	ld	a0,64(sp)
    80002666:	e588                	sd	a0,8(a1)
    80002668:	7562                	ld	a0,56(sp)
    8000266a:	e188                	sd	a0,0(a1)
    }
    8000266c:	a009                	j	8000266e <_ZN63_$LT$u8$u20$as$u20$alloc..vec..spec_from_elem..SpecFromElem$GT$9from_elem17h7bf881e84d821ad0E+0x88>
    8000266e:	70a6                	ld	ra,104(sp)
    80002670:	6165                	addi	sp,sp,112
    80002672:	8082                	ret

Disassembly of section .text._ZN4core9panicking13assert_failed17hb31c8c2a34dfd8a3E:

0000000080002674 <_ZN4core9panicking13assert_failed17hb31c8c2a34dfd8a3E>:

/// Internal function for `assert_eq!` and `assert_ne!` macros
#[cold]
#[track_caller]
#[doc(hidden)]
pub fn assert_failed<T, U>(
    80002674:	715d                	addi	sp,sp,-80
    80002676:	883a                	mv	a6,a4
    80002678:	e42e                	sd	a1,8(sp)
    8000267a:	e832                	sd	a2,16(sp)
    8000267c:	04a107a3          	sb	a0,79(sp)
) -> !
where
    T: fmt::Debug + ?Sized,
    U: fmt::Debug + ?Sized,
{
    assert_failed_inner(kind, &left, &right, args)
    80002680:	628c                	ld	a1,0(a3)
    80002682:	ec2e                	sd	a1,24(sp)
    80002684:	668c                	ld	a1,8(a3)
    80002686:	f02e                	sd	a1,32(sp)
    80002688:	6a8c                	ld	a1,16(a3)
    8000268a:	f42e                	sd	a1,40(sp)
    8000268c:	6e8c                	ld	a1,24(a3)
    8000268e:	f82e                	sd	a1,48(sp)
    80002690:	728c                	ld	a1,32(a3)
    80002692:	fc2e                	sd	a1,56(sp)
    80002694:	768c                	ld	a1,40(a3)
    80002696:	e0ae                	sd	a1,64(sp)

0000000080002698 <.LBB0_1>:
    80002698:	00023717          	auipc	a4,0x23
    8000269c:	1a070713          	addi	a4,a4,416 # 80025838 <.L__unnamed_1>
    800026a0:	002c                	addi	a1,sp,8
    800026a2:	0814                	addi	a3,sp,16
    800026a4:	083c                	addi	a5,sp,24
    800026a6:	863a                	mv	a2,a4
    800026a8:	00020097          	auipc	ra,0x20
    800026ac:	ae8080e7          	jalr	-1304(ra) # 80022190 <_ZN4core9panicking19assert_failed_inner17h4615d2e87cda8e50E>
	...

Disassembly of section .text._ZN6kernel4arch5riscv8register4mepc5write17h048707cbba437631E:

00000000800026b2 <_ZN6kernel4arch5riscv8register4mepc5write17h048707cbba437631E>:
// machine exception program counter, holds the
// instruction address to which a return from
// exception will go.
#[inline]
pub unsafe fn write(mepc: usize) {
    800026b2:	1141                	addi	sp,sp,-16
    800026b4:	e42a                	sd	a0,8(sp)
    llvm_asm!("csrw mepc, $0" :: "r"(mepc)::"volatile");
    800026b6:	34151073          	csrw	mepc,a0
    800026ba:	0141                	addi	sp,sp,16
    800026bc:	8082                	ret

Disassembly of section .text._ZN6kernel7process9trapframe9Trapframe10update_epc17h24874241e4b03020E:

00000000800026be <_ZN6kernel7process9trapframe9Trapframe10update_epc17h24874241e4b03020E>:
    /*280 */    pub t6:usize
}


impl Trapframe {
    pub fn update_epc(&mut self) {
    800026be:	1101                	addi	sp,sp,-32
    800026c0:	e42a                	sd	a0,8(sp)
    800026c2:	ec2a                	sd	a0,24(sp)
        self.epc += 4;
    800026c4:	6d0c                	ld	a1,24(a0)
    800026c6:	00458513          	addi	a0,a1,4
    800026ca:	e82a                	sd	a0,16(sp)
    800026cc:	00b56863          	bltu	a0,a1,800026dc <.LBB0_3>
    800026d0:	a009                	j	800026d2 <_ZN6kernel7process9trapframe9Trapframe10update_epc17h24874241e4b03020E+0x14>
    800026d2:	6542                	ld	a0,16(sp)
    800026d4:	65a2                	ld	a1,8(sp)
    800026d6:	ed88                	sd	a0,24(a1)
    }
    800026d8:	6105                	addi	sp,sp,32
    800026da:	8082                	ret

00000000800026dc <.LBB0_3>:
        self.epc += 4;
    800026dc:	00023517          	auipc	a0,0x23
    800026e0:	1b450513          	addi	a0,a0,436 # 80025890 <str.0>

00000000800026e4 <.LBB0_4>:
    800026e4:	00023617          	auipc	a2,0x23
    800026e8:	18c60613          	addi	a2,a2,396 # 80025870 <.L__unnamed_1>
    800026ec:	45f1                	li	a1,28
    800026ee:	00020097          	auipc	ra,0x20
    800026f2:	a0e080e7          	jalr	-1522(ra) # 800220fc <_ZN4core9panicking5panic17h153a4ce3c60ede6bE>
	...

Disassembly of section .text._ZN5alloc7raw_vec11finish_grow17h67df8fd3b618c18aE:

00000000800026f8 <_ZN5alloc7raw_vec11finish_grow17h67df8fd3b618c18aE>:
// This function is outside `RawVec` to minimize compile times. See the comment
// above `RawVec::grow_amortized` for details. (The `A` parameter isn't
// significant, because the number of different `A` types seen in practice is
// much smaller than the number of `T` types.)
#[inline(never)]
fn finish_grow<A>(
    800026f8:	7129                	addi	sp,sp,-320
    800026fa:	fe06                	sd	ra,312(sp)
    800026fc:	f83a                	sd	a4,48(sp)
    new_layout: Result<Layout, LayoutError>,
    current_memory: Option<(NonNull<u8>, Layout)>,
    800026fe:	fc36                	sd	a3,56(sp)
    80002700:	e0aa                	sd	a0,64(sp)
    80002702:	f1ae                	sd	a1,224(sp)
    80002704:	f5b2                	sd	a2,232(sp)
    80002706:	f9ba                	sd	a4,240(sp)
    80002708:	1888                	addi	a0,sp,112
) -> Result<NonNull<[u8]>, TryReserveError>
where
    A: Allocator,
{
    // Check for the error here to minimize the size of `RawVec::grow_*`.
    let new_layout = new_layout.map_err(|_| CapacityOverflow)?;
    8000270a:	0000a097          	auipc	ra,0xa
    8000270e:	7ba080e7          	jalr	1978(ra) # 8000cec4 <_ZN4core6result19Result$LT$T$C$E$GT$7map_err17h048c451de26fa4b9E>
    80002712:	a009                	j	80002714 <_ZN5alloc7raw_vec11finish_grow17h67df8fd3b618c18aE+0x1c>
    80002714:	08a8                	addi	a0,sp,88
    80002716:	188c                	addi	a1,sp,112
    80002718:	0000b097          	auipc	ra,0xb
    8000271c:	a24080e7          	jalr	-1500(ra) # 8000d13c <_ZN73_$LT$core..result..Result$LT$T$C$E$GT$$u20$as$u20$core..ops..try..Try$GT$11into_result17h81067e0558a14198E>
    80002720:	a009                	j	80002722 <_ZN5alloc7raw_vec11finish_grow17h67df8fd3b618c18aE+0x2a>
    80002722:	6566                	ld	a0,88(sp)
    80002724:	4581                	li	a1,0
    80002726:	00b50463          	beq	a0,a1,8000272e <_ZN5alloc7raw_vec11finish_grow17h67df8fd3b618c18aE+0x36>
    8000272a:	a009                	j	8000272c <_ZN5alloc7raw_vec11finish_grow17h67df8fd3b618c18aE+0x34>
    8000272c:	a839                	j	8000274a <_ZN5alloc7raw_vec11finish_grow17h67df8fd3b618c18aE+0x52>
    8000272e:	7586                	ld	a1,96(sp)
    80002730:	7526                	ld	a0,104(sp)
    80002732:	ea2e                	sd	a1,272(sp)
    80002734:	ee2a                	sd	a0,280(sp)
    80002736:	e4ae                	sd	a1,72(sp)
    80002738:	e8aa                	sd	a0,80(sp)
    8000273a:	00a8                	addi	a0,sp,72

    alloc_guard(new_layout.size())?;
    8000273c:	0001c097          	auipc	ra,0x1c
    80002740:	0d8080e7          	jalr	216(ra) # 8001e814 <_ZN4core5alloc6layout6Layout4size17h7f60c0168860a2ffE>
    80002744:	f42a                	sd	a0,40(sp)
    80002746:	a035                	j	80002772 <_ZN5alloc7raw_vec11finish_grow17h67df8fd3b618c18aE+0x7a>
    let new_layout = new_layout.map_err(|_| CapacityOverflow)?;
    80002748:	0000                	unimp
    8000274a:	7506                	ld	a0,96(sp)
    8000274c:	75a6                	ld	a1,104(sp)
    8000274e:	e22a                	sd	a0,256(sp)
    80002750:	e62e                	sd	a1,264(sp)
    80002752:	00013097          	auipc	ra,0x13
    80002756:	028080e7          	jalr	40(ra) # 8001577a <_ZN50_$LT$T$u20$as$u20$core..convert..From$LT$T$GT$$GT$4from17h00cb4931a375be30E>
    8000275a:	ec2a                	sd	a0,24(sp)
    8000275c:	f02e                	sd	a1,32(sp)
    8000275e:	a009                	j	80002760 <_ZN5alloc7raw_vec11finish_grow17h67df8fd3b618c18aE+0x68>
    80002760:	7602                	ld	a2,32(sp)
    80002762:	65e2                	ld	a1,24(sp)
    80002764:	6506                	ld	a0,64(sp)
    80002766:	0000b097          	auipc	ra,0xb
    8000276a:	8e6080e7          	jalr	-1818(ra) # 8000d04c <_ZN73_$LT$core..result..Result$LT$T$C$E$GT$$u20$as$u20$core..ops..try..Try$GT$10from_error17h7458ba93a206fcffE>
    8000276e:	a009                	j	80002770 <_ZN5alloc7raw_vec11finish_grow17h67df8fd3b618c18aE+0x78>
    80002770:	a8c9                	j	80002842 <_ZN5alloc7raw_vec11finish_grow17h67df8fd3b618c18aE+0x14a>
    alloc_guard(new_layout.size())?;
    80002772:	75a2                	ld	a1,40(sp)
    80002774:	1108                	addi	a0,sp,160
    80002776:	0001c097          	auipc	ra,0x1c
    8000277a:	bf0080e7          	jalr	-1040(ra) # 8001e366 <_ZN5alloc7raw_vec11alloc_guard17hfed185ef1a23ae81E>
    8000277e:	a009                	j	80002780 <_ZN5alloc7raw_vec11finish_grow17h67df8fd3b618c18aE+0x88>
    80002780:	0128                	addi	a0,sp,136
    80002782:	110c                	addi	a1,sp,160
    80002784:	0000b097          	auipc	ra,0xb
    80002788:	970080e7          	jalr	-1680(ra) # 8000d0f4 <_ZN73_$LT$core..result..Result$LT$T$C$E$GT$$u20$as$u20$core..ops..try..Try$GT$11into_result17h219e266dbc1ee71cE>
    8000278c:	a009                	j	8000278e <_ZN5alloc7raw_vec11finish_grow17h67df8fd3b618c18aE+0x96>
    8000278e:	652a                	ld	a0,136(sp)
    80002790:	4581                	li	a1,0
    80002792:	00b50463          	beq	a0,a1,8000279a <_ZN5alloc7raw_vec11finish_grow17h67df8fd3b618c18aE+0xa2>
    80002796:	a009                	j	80002798 <_ZN5alloc7raw_vec11finish_grow17h67df8fd3b618c18aE+0xa0>
    80002798:	a801                	j	800027a8 <_ZN5alloc7raw_vec11finish_grow17h67df8fd3b618c18aE+0xb0>

    let memory = if let Some((ptr, old_layout)) = current_memory {
    8000279a:	7562                	ld	a0,56(sp)
    8000279c:	6108                	ld	a0,0(a0)
    8000279e:	4581                	li	a1,0
    800027a0:	04b51263          	bne	a0,a1,800027e4 <_ZN5alloc7raw_vec11finish_grow17h67df8fd3b618c18aE+0xec>
    800027a4:	a035                	j	800027d0 <_ZN5alloc7raw_vec11finish_grow17h67df8fd3b618c18aE+0xd8>
    alloc_guard(new_layout.size())?;
    800027a6:	0000                	unimp
    800027a8:	654a                	ld	a0,144(sp)
    800027aa:	65ea                	ld	a1,152(sp)
    800027ac:	f22a                	sd	a0,288(sp)
    800027ae:	f62e                	sd	a1,296(sp)
    800027b0:	00013097          	auipc	ra,0x13
    800027b4:	fca080e7          	jalr	-54(ra) # 8001577a <_ZN50_$LT$T$u20$as$u20$core..convert..From$LT$T$GT$$GT$4from17h00cb4931a375be30E>
    800027b8:	e42a                	sd	a0,8(sp)
    800027ba:	e82e                	sd	a1,16(sp)
    800027bc:	a009                	j	800027be <_ZN5alloc7raw_vec11finish_grow17h67df8fd3b618c18aE+0xc6>
    800027be:	6642                	ld	a2,16(sp)
    800027c0:	65a2                	ld	a1,8(sp)
    800027c2:	6506                	ld	a0,64(sp)
    800027c4:	0000b097          	auipc	ra,0xb
    800027c8:	888080e7          	jalr	-1912(ra) # 8000d04c <_ZN73_$LT$core..result..Result$LT$T$C$E$GT$$u20$as$u20$core..ops..try..Try$GT$10from_error17h7458ba93a206fcffE>
    800027cc:	a009                	j	800027ce <_ZN5alloc7raw_vec11finish_grow17h67df8fd3b618c18aE+0xd6>
    800027ce:	a895                	j	80002842 <_ZN5alloc7raw_vec11finish_grow17h67df8fd3b618c18aE+0x14a>
            // The allocator checks for alignment equality
            intrinsics::assume(old_layout.align() == new_layout.align());
            alloc.grow(ptr, old_layout, new_layout)
        }
    } else {
        alloc.allocate(new_layout)
    800027d0:	7542                	ld	a0,48(sp)
    800027d2:	65a6                	ld	a1,72(sp)
    800027d4:	6646                	ld	a2,80(sp)
    800027d6:	0000a097          	auipc	ra,0xa
    800027da:	a96080e7          	jalr	-1386(ra) # 8000c26c <_ZN63_$LT$alloc..alloc..Global$u20$as$u20$core..alloc..Allocator$GT$8allocate17ha3ee32ed39eb82efE>
    800027de:	fd2a                	sd	a0,184(sp)
    800027e0:	e1ae                	sd	a1,192(sp)
    800027e2:	a0a1                	j	8000282a <_ZN5alloc7raw_vec11finish_grow17h67df8fd3b618c18aE+0x132>
    let memory = if let Some((ptr, old_layout)) = current_memory {
    800027e4:	7562                	ld	a0,56(sp)
    800027e6:	610c                	ld	a1,0(a0)
    800027e8:	e02e                	sd	a1,0(sp)
    800027ea:	fa2e                	sd	a1,304(sp)
    800027ec:	650c                	ld	a1,8(a0)
    800027ee:	6908                	ld	a0,16(a0)
    800027f0:	e5ae                	sd	a1,200(sp)
    800027f2:	e9aa                	sd	a0,208(sp)
    800027f4:	01a8                	addi	a0,sp,200
            intrinsics::assume(old_layout.align() == new_layout.align());
    800027f6:	0001c097          	auipc	ra,0x1c
    800027fa:	028080e7          	jalr	40(ra) # 8001e81e <_ZN4core5alloc6layout6Layout5align17h05712eb17caed6beE>
    800027fe:	a009                	j	80002800 <_ZN5alloc7raw_vec11finish_grow17h67df8fd3b618c18aE+0x108>
    80002800:	00a8                	addi	a0,sp,72
    80002802:	0001c097          	auipc	ra,0x1c
    80002806:	01c080e7          	jalr	28(ra) # 8001e81e <_ZN4core5alloc6layout6Layout5align17h05712eb17caed6beE>
    8000280a:	a009                	j	8000280c <_ZN5alloc7raw_vec11finish_grow17h67df8fd3b618c18aE+0x114>
    8000280c:	a009                	j	8000280e <_ZN5alloc7raw_vec11finish_grow17h67df8fd3b618c18aE+0x116>
            alloc.grow(ptr, old_layout, new_layout)
    8000280e:	6582                	ld	a1,0(sp)
    80002810:	7542                	ld	a0,48(sp)
    80002812:	662e                	ld	a2,200(sp)
    80002814:	66ce                	ld	a3,208(sp)
    80002816:	6726                	ld	a4,72(sp)
    80002818:	67c6                	ld	a5,80(sp)
    8000281a:	0000a097          	auipc	ra,0xa
    8000281e:	a28080e7          	jalr	-1496(ra) # 8000c242 <_ZN63_$LT$alloc..alloc..Global$u20$as$u20$core..alloc..Allocator$GT$4grow17h7670efcd8d0be277E>
    80002822:	fd2a                	sd	a0,184(sp)
    80002824:	e1ae                	sd	a1,192(sp)
    80002826:	a009                	j	80002828 <_ZN5alloc7raw_vec11finish_grow17h67df8fd3b618c18aE+0x130>
    let memory = if let Some((ptr, old_layout)) = current_memory {
    80002828:	a011                	j	8000282c <_ZN5alloc7raw_vec11finish_grow17h67df8fd3b618c18aE+0x134>
    8000282a:	a009                	j	8000282c <_ZN5alloc7raw_vec11finish_grow17h67df8fd3b618c18aE+0x134>
    };

    memory.map_err(|_| AllocError { layout: new_layout, non_exhaustive: () })
    8000282c:	6506                	ld	a0,64(sp)
    8000282e:	75ea                	ld	a1,184(sp)
    80002830:	660e                	ld	a2,192(sp)
    80002832:	00b4                	addi	a3,sp,72
    80002834:	edb6                	sd	a3,216(sp)
    80002836:	0000a097          	auipc	ra,0xa
    8000283a:	6f6080e7          	jalr	1782(ra) # 8000cf2c <_ZN4core6result19Result$LT$T$C$E$GT$7map_err17h3706629688909c32E>
    8000283e:	a009                	j	80002840 <_ZN5alloc7raw_vec11finish_grow17h67df8fd3b618c18aE+0x148>
}
    80002840:	a011                	j	80002844 <_ZN5alloc7raw_vec11finish_grow17h67df8fd3b618c18aE+0x14c>
    80002842:	a009                	j	80002844 <_ZN5alloc7raw_vec11finish_grow17h67df8fd3b618c18aE+0x14c>
    80002844:	70f2                	ld	ra,312(sp)
    80002846:	6131                	addi	sp,sp,320
    80002848:	8082                	ret

Disassembly of section .text._ZN5alloc7raw_vec11finish_grow28_$u7b$$u7b$closure$u7d$$u7d$17h4102ec07be08fbafE:

000000008000284a <_ZN5alloc7raw_vec11finish_grow28_$u7b$$u7b$closure$u7d$$u7d$17h4102ec07be08fbafE>:
    memory.map_err(|_| AllocError { layout: new_layout, non_exhaustive: () })
    8000284a:	1101                	addi	sp,sp,-32
    8000284c:	85aa                	mv	a1,a0
    8000284e:	e82e                	sd	a1,16(sp)
    80002850:	6188                	ld	a0,0(a1)
    80002852:	658c                	ld	a1,8(a1)
    80002854:	e02a                	sd	a0,0(sp)
    80002856:	e42e                	sd	a1,8(sp)
    80002858:	6105                	addi	sp,sp,32
    8000285a:	8082                	ret

Disassembly of section .text._ZN5alloc7raw_vec11finish_grow28_$u7b$$u7b$closure$u7d$$u7d$17h73415ce87cdd3564E:

000000008000285c <_ZN5alloc7raw_vec11finish_grow28_$u7b$$u7b$closure$u7d$$u7d$17h73415ce87cdd3564E>:
    let new_layout = new_layout.map_err(|_| CapacityOverflow)?;
    8000285c:	1101                	addi	sp,sp,-32
    8000285e:	4581                	li	a1,0
    80002860:	e42e                	sd	a1,8(sp)
    80002862:	6502                	ld	a0,0(sp)
    80002864:	6105                	addi	sp,sp,32
    80002866:	8082                	ret

Disassembly of section .text._ZN5alloc7raw_vec19RawVec$LT$T$C$A$GT$11allocate_in17hb1a7e5211a2ca028E:

0000000080002868 <_ZN5alloc7raw_vec19RawVec$LT$T$C$A$GT$11allocate_in17hb1a7e5211a2ca028E>:
    fn allocate_in(capacity: usize, init: AllocInit, alloc: A) -> Self {
    80002868:	7151                	addi	sp,sp,-240
    8000286a:	f586                	sd	ra,232(sp)
    8000286c:	e0aa                	sd	a0,64(sp)
    8000286e:	04b107a3          	sb	a1,79(sp)
    80002872:	f92a                	sd	a0,176(sp)
        if mem::size_of::<T>() == 0 {
    80002874:	a009                	j	80002876 <_ZN5alloc7raw_vec19RawVec$LT$T$C$A$GT$11allocate_in17hb1a7e5211a2ca028E+0xe>
    80002876:	4505                	li	a0,1
    80002878:	e909                	bnez	a0,8000288a <_ZN5alloc7raw_vec19RawVec$LT$T$C$A$GT$11allocate_in17hb1a7e5211a2ca028E+0x22>
    8000287a:	a009                	j	8000287c <_ZN5alloc7raw_vec19RawVec$LT$T$C$A$GT$11allocate_in17hb1a7e5211a2ca028E+0x14>
            Self::new_in(alloc)
    8000287c:	00000097          	auipc	ra,0x0
    80002880:	418080e7          	jalr	1048(ra) # 80002c94 <_ZN5alloc7raw_vec19RawVec$LT$T$C$A$GT$6new_in17hcde8bd186b8458cbE>
    80002884:	ecaa                	sd	a0,88(sp)
    80002886:	f0ae                	sd	a1,96(sp)
    80002888:	a809                	j	8000289a <_ZN5alloc7raw_vec19RawVec$LT$T$C$A$GT$11allocate_in17hb1a7e5211a2ca028E+0x32>
            let layout = match Layout::array::<T>(capacity) {
    8000288a:	6506                	ld	a0,64(sp)
    8000288c:	00006097          	auipc	ra,0x6
    80002890:	dd8080e7          	jalr	-552(ra) # 80008664 <_ZN4core5alloc6layout6Layout5array17h33220460c7f786e0E>
    80002894:	fcaa                	sd	a0,120(sp)
    80002896:	e12e                	sd	a1,128(sp)
    80002898:	a011                	j	8000289c <_ZN5alloc7raw_vec19RawVec$LT$T$C$A$GT$11allocate_in17hb1a7e5211a2ca028E+0x34>
        if mem::size_of::<T>() == 0 {
    8000289a:	aa11                	j	800029ae <_ZN5alloc7raw_vec19RawVec$LT$T$C$A$GT$11allocate_in17hb1a7e5211a2ca028E+0x146>
                Ok(layout) => layout,
    8000289c:	650a                	ld	a0,128(sp)
    8000289e:	00153593          	seqz	a1,a0
    800028a2:	4581                	li	a1,0
    800028a4:	00b51963          	bne	a0,a1,800028b6 <_ZN5alloc7raw_vec19RawVec$LT$T$C$A$GT$11allocate_in17hb1a7e5211a2ca028E+0x4e>
    800028a8:	a009                	j	800028aa <_ZN5alloc7raw_vec19RawVec$LT$T$C$A$GT$11allocate_in17hb1a7e5211a2ca028E+0x42>
                Err(_) => capacity_overflow(),
    800028aa:	0001f097          	auipc	ra,0x1f
    800028ae:	668080e7          	jalr	1640(ra) # 80021f12 <_ZN5alloc7raw_vec17capacity_overflow17hae1c560931d103e4E>
    800028b2:	0000                	unimp
            let layout = match Layout::array::<T>(capacity) {
    800028b4:	0000                	unimp
                Ok(layout) => layout,
    800028b6:	75e6                	ld	a1,120(sp)
    800028b8:	650a                	ld	a0,128(sp)
    800028ba:	fd2e                	sd	a1,184(sp)
    800028bc:	e1aa                	sd	a0,192(sp)
    800028be:	f4ae                	sd	a1,104(sp)
    800028c0:	f8aa                	sd	a0,112(sp)
    800028c2:	10a8                	addi	a0,sp,104
            match alloc_guard(layout.size()) {
    800028c4:	0001c097          	auipc	ra,0x1c
    800028c8:	f50080e7          	jalr	-176(ra) # 8001e814 <_ZN4core5alloc6layout6Layout4size17h7f60c0168860a2ffE>
    800028cc:	fc2a                	sd	a0,56(sp)
    800028ce:	a009                	j	800028d0 <_ZN5alloc7raw_vec19RawVec$LT$T$C$A$GT$11allocate_in17hb1a7e5211a2ca028E+0x68>
    800028d0:	75e2                	ld	a1,56(sp)
    800028d2:	0128                	addi	a0,sp,136
    800028d4:	0001c097          	auipc	ra,0x1c
    800028d8:	a92080e7          	jalr	-1390(ra) # 8001e366 <_ZN5alloc7raw_vec11alloc_guard17hfed185ef1a23ae81E>
    800028dc:	a009                	j	800028de <_ZN5alloc7raw_vec19RawVec$LT$T$C$A$GT$11allocate_in17hb1a7e5211a2ca028E+0x76>
                Ok(_) => {}
    800028de:	652a                	ld	a0,136(sp)
    800028e0:	4581                	li	a1,0
    800028e2:	00b50963          	beq	a0,a1,800028f4 <_ZN5alloc7raw_vec19RawVec$LT$T$C$A$GT$11allocate_in17hb1a7e5211a2ca028E+0x8c>
    800028e6:	a009                	j	800028e8 <_ZN5alloc7raw_vec19RawVec$LT$T$C$A$GT$11allocate_in17hb1a7e5211a2ca028E+0x80>
                Err(_) => capacity_overflow(),
    800028e8:	0001f097          	auipc	ra,0x1f
    800028ec:	62a080e7          	jalr	1578(ra) # 80021f12 <_ZN5alloc7raw_vec17capacity_overflow17hae1c560931d103e4E>
    800028f0:	0000                	unimp
            match alloc_guard(layout.size()) {
    800028f2:	0000                	unimp
                AllocInit::Uninitialized => alloc.allocate(layout),
    800028f4:	04f14503          	lbu	a0,79(sp)
    800028f8:	8905                	andi	a0,a0,1
    800028fa:	4581                	li	a1,0
    800028fc:	00b50e63          	beq	a0,a1,80002918 <_ZN5alloc7raw_vec19RawVec$LT$T$C$A$GT$11allocate_in17hb1a7e5211a2ca028E+0xb0>
    80002900:	a009                	j	80002902 <_ZN5alloc7raw_vec19RawVec$LT$T$C$A$GT$11allocate_in17hb1a7e5211a2ca028E+0x9a>
                AllocInit::Zeroed => alloc.allocate_zeroed(layout),
    80002902:	75a6                	ld	a1,104(sp)
    80002904:	7646                	ld	a2,112(sp)
    80002906:	0888                	addi	a0,sp,80
    80002908:	0000a097          	auipc	ra,0xa
    8000290c:	916080e7          	jalr	-1770(ra) # 8000c21e <_ZN63_$LT$alloc..alloc..Global$u20$as$u20$core..alloc..Allocator$GT$15allocate_zeroed17h62d497141254e70dE>
    80002910:	f12a                	sd	a0,160(sp)
    80002912:	f52e                	sd	a1,168(sp)
    80002914:	a829                	j	8000292e <_ZN5alloc7raw_vec19RawVec$LT$T$C$A$GT$11allocate_in17hb1a7e5211a2ca028E+0xc6>
            let result = match init {
    80002916:	0000                	unimp
                AllocInit::Uninitialized => alloc.allocate(layout),
    80002918:	75a6                	ld	a1,104(sp)
    8000291a:	7646                	ld	a2,112(sp)
    8000291c:	0888                	addi	a0,sp,80
    8000291e:	0000a097          	auipc	ra,0xa
    80002922:	94e080e7          	jalr	-1714(ra) # 8000c26c <_ZN63_$LT$alloc..alloc..Global$u20$as$u20$core..alloc..Allocator$GT$8allocate17ha3ee32ed39eb82efE>
    80002926:	f12a                	sd	a0,160(sp)
    80002928:	f52e                	sd	a1,168(sp)
    8000292a:	a009                	j	8000292c <_ZN5alloc7raw_vec19RawVec$LT$T$C$A$GT$11allocate_in17hb1a7e5211a2ca028E+0xc4>
            let result = match init {
    8000292c:	a011                	j	80002930 <_ZN5alloc7raw_vec19RawVec$LT$T$C$A$GT$11allocate_in17hb1a7e5211a2ca028E+0xc8>
    8000292e:	a009                	j	80002930 <_ZN5alloc7raw_vec19RawVec$LT$T$C$A$GT$11allocate_in17hb1a7e5211a2ca028E+0xc8>
                Ok(ptr) => ptr,
    80002930:	750a                	ld	a0,160(sp)
    80002932:	00153593          	seqz	a1,a0
    80002936:	4581                	li	a1,0
    80002938:	00b51b63          	bne	a0,a1,8000294e <_ZN5alloc7raw_vec19RawVec$LT$T$C$A$GT$11allocate_in17hb1a7e5211a2ca028E+0xe6>
    8000293c:	a009                	j	8000293e <_ZN5alloc7raw_vec19RawVec$LT$T$C$A$GT$11allocate_in17hb1a7e5211a2ca028E+0xd6>
                Err(_) => handle_alloc_error(layout),
    8000293e:	7526                	ld	a0,104(sp)
    80002940:	75c6                	ld	a1,112(sp)
    80002942:	0001f097          	auipc	ra,0x1f
    80002946:	5b4080e7          	jalr	1460(ra) # 80021ef6 <_ZN5alloc5alloc18handle_alloc_error17haa1b1c0a80642c5aE>
    8000294a:	0000                	unimp
            let ptr = match result {
    8000294c:	0000                	unimp
                Ok(ptr) => ptr,
    8000294e:	750a                	ld	a0,160(sp)
    80002950:	f02a                	sd	a0,32(sp)
    80002952:	75aa                	ld	a1,168(sp)
    80002954:	f42e                	sd	a1,40(sp)
    80002956:	e5aa                	sd	a0,200(sp)
    80002958:	e9ae                	sd	a1,208(sp)
    8000295a:	edaa                	sd	a0,216(sp)
    8000295c:	f1ae                	sd	a1,224(sp)
                ptr: unsafe { Unique::new_unchecked(ptr.cast().as_ptr()) },
    8000295e:	0000d097          	auipc	ra,0xd
    80002962:	a5a080e7          	jalr	-1446(ra) # 8000f3b8 <_ZN4core3ptr8non_null16NonNull$LT$T$GT$4cast17he3c6d28f0e68e811E>
    80002966:	f82a                	sd	a0,48(sp)
    80002968:	a009                	j	8000296a <_ZN5alloc7raw_vec19RawVec$LT$T$C$A$GT$11allocate_in17hb1a7e5211a2ca028E+0x102>
    8000296a:	7542                	ld	a0,48(sp)
    8000296c:	0000d097          	auipc	ra,0xd
    80002970:	acc080e7          	jalr	-1332(ra) # 8000f438 <_ZN4core3ptr8non_null16NonNull$LT$T$GT$6as_ptr17h729713db2b300d39E>
    80002974:	ec2a                	sd	a0,24(sp)
    80002976:	a009                	j	80002978 <_ZN5alloc7raw_vec19RawVec$LT$T$C$A$GT$11allocate_in17hb1a7e5211a2ca028E+0x110>
    80002978:	6562                	ld	a0,24(sp)
    8000297a:	00009097          	auipc	ra,0x9
    8000297e:	0ec080e7          	jalr	236(ra) # 8000ba66 <_ZN4core3ptr6unique15Unique$LT$T$GT$13new_unchecked17h620617f59cddd065E>
    80002982:	e82a                	sd	a0,16(sp)
    80002984:	a009                	j	80002986 <_ZN5alloc7raw_vec19RawVec$LT$T$C$A$GT$11allocate_in17hb1a7e5211a2ca028E+0x11e>
                cap: Self::capacity_from_bytes(ptr.len()),
    80002986:	75a2                	ld	a1,40(sp)
    80002988:	7502                	ld	a0,32(sp)
    8000298a:	0000d097          	auipc	ra,0xd
    8000298e:	bc6080e7          	jalr	-1082(ra) # 8000f550 <_ZN4core3ptr8non_null26NonNull$LT$$u5b$T$u5d$$GT$3len17h17d848b65404492bE>
    80002992:	e42a                	sd	a0,8(sp)
    80002994:	a009                	j	80002996 <_ZN5alloc7raw_vec19RawVec$LT$T$C$A$GT$11allocate_in17hb1a7e5211a2ca028E+0x12e>
    80002996:	6522                	ld	a0,8(sp)
    80002998:	00000097          	auipc	ra,0x0
    8000299c:	28c080e7          	jalr	652(ra) # 80002c24 <_ZN5alloc7raw_vec19RawVec$LT$T$C$A$GT$19capacity_from_bytes17hb8f80a7316d4a8fbE>
    800029a0:	e02a                	sd	a0,0(sp)
    800029a2:	a009                	j	800029a4 <_ZN5alloc7raw_vec19RawVec$LT$T$C$A$GT$11allocate_in17hb1a7e5211a2ca028E+0x13c>
            Self {
    800029a4:	6502                	ld	a0,0(sp)
    800029a6:	65c2                	ld	a1,16(sp)
    800029a8:	ecae                	sd	a1,88(sp)
    800029aa:	f0aa                	sd	a0,96(sp)
        if mem::size_of::<T>() == 0 {
    800029ac:	a009                	j	800029ae <_ZN5alloc7raw_vec19RawVec$LT$T$C$A$GT$11allocate_in17hb1a7e5211a2ca028E+0x146>
    }
    800029ae:	6566                	ld	a0,88(sp)
    800029b0:	7586                	ld	a1,96(sp)
    800029b2:	70ae                	ld	ra,232(sp)
    800029b4:	616d                	addi	sp,sp,240
    800029b6:	8082                	ret

Disassembly of section .text._ZN5alloc7raw_vec19RawVec$LT$T$C$A$GT$13needs_to_grow17ha08818b631ce0004E:

00000000800029b8 <_ZN5alloc7raw_vec19RawVec$LT$T$C$A$GT$13needs_to_grow17ha08818b631ce0004E>:
    fn needs_to_grow(&self, len: usize, additional: usize) -> bool {
    800029b8:	715d                	addi	sp,sp,-80
    800029ba:	e486                	sd	ra,72(sp)
    800029bc:	e432                	sd	a2,8(sp)
    800029be:	e82e                	sd	a1,16(sp)
    800029c0:	f02a                	sd	a0,32(sp)
    800029c2:	f42e                	sd	a1,40(sp)
    800029c4:	f832                	sd	a2,48(sp)
    800029c6:	e0aa                	sd	a0,64(sp)
        if mem::size_of::<T>() == 0 { usize::MAX } else { self.cap }
    800029c8:	6508                	ld	a0,8(a0)
    800029ca:	ec2a                	sd	a0,24(sp)
    800029cc:	fc2a                	sd	a0,56(sp)
        additional > self.capacity().wrapping_sub(len)
    800029ce:	a009                	j	800029d0 <_ZN5alloc7raw_vec19RawVec$LT$T$C$A$GT$13needs_to_grow17ha08818b631ce0004E+0x18>
    800029d0:	65c2                	ld	a1,16(sp)
    800029d2:	6562                	ld	a0,24(sp)
    800029d4:	0001b097          	auipc	ra,0x1b
    800029d8:	550080e7          	jalr	1360(ra) # 8001df24 <_ZN4core3num23_$LT$impl$u20$usize$GT$12wrapping_sub17h8f077bf007d122c9E>
    800029dc:	e02a                	sd	a0,0(sp)
    800029de:	a009                	j	800029e0 <_ZN5alloc7raw_vec19RawVec$LT$T$C$A$GT$13needs_to_grow17ha08818b631ce0004E+0x28>
    800029e0:	6502                	ld	a0,0(sp)
    800029e2:	65a2                	ld	a1,8(sp)
    800029e4:	00b53533          	sltu	a0,a0,a1
    }
    800029e8:	60a6                	ld	ra,72(sp)
    800029ea:	6161                	addi	sp,sp,80
    800029ec:	8082                	ret

Disassembly of section .text._ZN5alloc7raw_vec19RawVec$LT$T$C$A$GT$14current_memory17h47d07dfc1131b1d6E:

00000000800029ee <_ZN5alloc7raw_vec19RawVec$LT$T$C$A$GT$14current_memory17h47d07dfc1131b1d6E>:
    fn current_memory(&self) -> Option<(NonNull<u8>, Layout)> {
    800029ee:	7175                	addi	sp,sp,-144
    800029f0:	e506                	sd	ra,136(sp)
    800029f2:	f42e                	sd	a1,40(sp)
    800029f4:	f82a                	sd	a0,48(sp)
    800029f6:	ecae                	sd	a1,88(sp)
        if mem::size_of::<T>() == 0 || self.cap == 0 {
    800029f8:	a025                	j	80002a20 <_ZN5alloc7raw_vec19RawVec$LT$T$C$A$GT$14current_memory17h47d07dfc1131b1d6E+0x32>
    800029fa:	4505                	li	a0,1
    800029fc:	02a10fa3          	sb	a0,63(sp)
    80002a00:	a819                	j	80002a16 <_ZN5alloc7raw_vec19RawVec$LT$T$C$A$GT$14current_memory17h47d07dfc1131b1d6E+0x28>
    80002a02:	4501                	li	a0,0
    80002a04:	02a10fa3          	sb	a0,63(sp)
    80002a08:	a039                	j	80002a16 <_ZN5alloc7raw_vec19RawVec$LT$T$C$A$GT$14current_memory17h47d07dfc1131b1d6E+0x28>
    80002a0a:	7522                	ld	a0,40(sp)
    80002a0c:	6508                	ld	a0,8(a0)
    80002a0e:	4581                	li	a1,0
    80002a10:	feb505e3          	beq	a0,a1,800029fa <_ZN5alloc7raw_vec19RawVec$LT$T$C$A$GT$14current_memory17h47d07dfc1131b1d6E+0xc>
    80002a14:	b7fd                	j	80002a02 <_ZN5alloc7raw_vec19RawVec$LT$T$C$A$GT$14current_memory17h47d07dfc1131b1d6E+0x14>
    80002a16:	03f14503          	lbu	a0,63(sp)
    80002a1a:	8905                	andi	a0,a0,1
    80002a1c:	e509                	bnez	a0,80002a26 <_ZN5alloc7raw_vec19RawVec$LT$T$C$A$GT$14current_memory17h47d07dfc1131b1d6E+0x38>
    80002a1e:	a801                	j	80002a2e <_ZN5alloc7raw_vec19RawVec$LT$T$C$A$GT$14current_memory17h47d07dfc1131b1d6E+0x40>
    80002a20:	4501                	li	a0,0
    80002a22:	fd61                	bnez	a0,800029fa <_ZN5alloc7raw_vec19RawVec$LT$T$C$A$GT$14current_memory17h47d07dfc1131b1d6E+0xc>
    80002a24:	b7dd                	j	80002a0a <_ZN5alloc7raw_vec19RawVec$LT$T$C$A$GT$14current_memory17h47d07dfc1131b1d6E+0x1c>
    80002a26:	75c2                	ld	a1,48(sp)
    80002a28:	4501                	li	a0,0
            None
    80002a2a:	e188                	sd	a0,0(a1)
        if mem::size_of::<T>() == 0 || self.cap == 0 {
    80002a2c:	a085                	j	80002a8c <_ZN5alloc7raw_vec19RawVec$LT$T$C$A$GT$14current_memory17h47d07dfc1131b1d6E+0x9e>
    80002a2e:	4505                	li	a0,1
#[inline(always)]
#[stable(feature = "rust1", since = "1.0.0")]
#[rustc_promotable]
#[rustc_const_stable(feature = "const_align_of", since = "1.24.0")]
pub const fn align_of<T>() -> usize {
    intrinsics::min_align_of::<T>()
    80002a30:	f02a                	sd	a0,32(sp)
    80002a32:	e12a                	sd	a0,128(sp)
                let align = mem::align_of::<T>();
    80002a34:	f0aa                	sd	a0,96(sp)
    80002a36:	a009                	j	80002a38 <_ZN5alloc7raw_vec19RawVec$LT$T$C$A$GT$14current_memory17h47d07dfc1131b1d6E+0x4a>
                let size = mem::size_of::<T>() * self.cap;
    80002a38:	a009                	j	80002a3a <_ZN5alloc7raw_vec19RawVec$LT$T$C$A$GT$14current_memory17h47d07dfc1131b1d6E+0x4c>
    80002a3a:	7582                	ld	a1,32(sp)
    80002a3c:	7522                	ld	a0,40(sp)
    80002a3e:	6508                	ld	a0,8(a0)
    80002a40:	f4aa                	sd	a0,104(sp)
                let layout = Layout::from_size_align_unchecked(size, align);
    80002a42:	0001c097          	auipc	ra,0x1c
    80002a46:	da8080e7          	jalr	-600(ra) # 8001e7ea <_ZN4core5alloc6layout6Layout25from_size_align_unchecked17h7d187b5349095d20E>
    80002a4a:	862a                	mv	a2,a0
    80002a4c:	e832                	sd	a2,16(sp)
    80002a4e:	862e                	mv	a2,a1
    80002a50:	ec32                	sd	a2,24(sp)
    80002a52:	f8aa                	sd	a0,112(sp)
    80002a54:	fcae                	sd	a1,120(sp)
    80002a56:	a009                	j	80002a58 <_ZN5alloc7raw_vec19RawVec$LT$T$C$A$GT$14current_memory17h47d07dfc1131b1d6E+0x6a>
                Some((self.ptr.cast().into(), layout))
    80002a58:	7522                	ld	a0,40(sp)
    80002a5a:	6108                	ld	a0,0(a0)
    80002a5c:	00009097          	auipc	ra,0x9
    80002a60:	082080e7          	jalr	130(ra) # 8000bade <_ZN4core3ptr6unique15Unique$LT$T$GT$4cast17h63879fc8651a3d59E>
    80002a64:	e42a                	sd	a0,8(sp)
    80002a66:	a009                	j	80002a68 <_ZN5alloc7raw_vec19RawVec$LT$T$C$A$GT$14current_memory17h47d07dfc1131b1d6E+0x7a>
    80002a68:	6522                	ld	a0,8(sp)
    80002a6a:	00009097          	auipc	ra,0x9
    80002a6e:	17e080e7          	jalr	382(ra) # 8000bbe8 <_ZN50_$LT$T$u20$as$u20$core..convert..Into$LT$U$GT$$GT$4into17h6726b37a43d030b4E>
    80002a72:	e02a                	sd	a0,0(sp)
    80002a74:	a009                	j	80002a76 <_ZN5alloc7raw_vec19RawVec$LT$T$C$A$GT$14current_memory17h47d07dfc1131b1d6E+0x88>
    80002a76:	6502                	ld	a0,0(sp)
    80002a78:	75c2                	ld	a1,48(sp)
    80002a7a:	6642                	ld	a2,16(sp)
    80002a7c:	66e2                	ld	a3,24(sp)
    80002a7e:	e0aa                	sd	a0,64(sp)
    80002a80:	e4b2                	sd	a2,72(sp)
    80002a82:	e8b6                	sd	a3,80(sp)
    80002a84:	e994                	sd	a3,16(a1)
    80002a86:	e590                	sd	a2,8(a1)
    80002a88:	e188                	sd	a0,0(a1)
        if mem::size_of::<T>() == 0 || self.cap == 0 {
    80002a8a:	a009                	j	80002a8c <_ZN5alloc7raw_vec19RawVec$LT$T$C$A$GT$14current_memory17h47d07dfc1131b1d6E+0x9e>
    }
    80002a8c:	60aa                	ld	ra,136(sp)
    80002a8e:	6149                	addi	sp,sp,144
    80002a90:	8082                	ret

Disassembly of section .text._ZN5alloc7raw_vec19RawVec$LT$T$C$A$GT$14grow_amortized17h6d7a8aee2de04232E:

0000000080002a92 <_ZN5alloc7raw_vec19RawVec$LT$T$C$A$GT$14grow_amortized17h6d7a8aee2de04232E>:
    fn grow_amortized(&mut self, len: usize, additional: usize) -> Result<(), TryReserveError> {
    80002a92:	7125                	addi	sp,sp,-416
    80002a94:	ef06                	sd	ra,408(sp)
    80002a96:	ecb6                	sd	a3,88(sp)
    80002a98:	f0b2                	sd	a2,96(sp)
    80002a9a:	f4ae                	sd	a1,104(sp)
    80002a9c:	f8aa                	sd	a0,112(sp)
    80002a9e:	ea2e                	sd	a1,272(sp)
    80002aa0:	ee32                	sd	a2,280(sp)
    80002aa2:	f236                	sd	a3,288(sp)
        if mem::size_of::<T>() == 0 {
    80002aa4:	a009                	j	80002aa6 <_ZN5alloc7raw_vec19RawVec$LT$T$C$A$GT$14grow_amortized17h6d7a8aee2de04232E+0x14>
    80002aa6:	4505                	li	a0,1
    80002aa8:	e919                	bnez	a0,80002abe <_ZN5alloc7raw_vec19RawVec$LT$T$C$A$GT$14grow_amortized17h6d7a8aee2de04232E+0x2c>
    80002aaa:	a009                	j	80002aac <_ZN5alloc7raw_vec19RawVec$LT$T$C$A$GT$14grow_amortized17h6d7a8aee2de04232E+0x1a>
    80002aac:	75c6                	ld	a1,112(sp)
    80002aae:	4501                	li	a0,0
            return Err(CapacityOverflow);
    80002ab0:	e12a                	sd	a0,128(sp)
    80002ab2:	7666                	ld	a2,120(sp)
    80002ab4:	e590                	sd	a2,8(a1)
    80002ab6:	e988                	sd	a0,16(a1)
    80002ab8:	4505                	li	a0,1
    80002aba:	e188                	sd	a0,0(a1)
    80002abc:	aa3d                	j	80002bfa <_ZN5alloc7raw_vec19RawVec$LT$T$C$A$GT$14grow_amortized17h6d7a8aee2de04232E+0x168>
        let required_cap = len.checked_add(additional).ok_or(CapacityOverflow)?;
    80002abe:	65e6                	ld	a1,88(sp)
    80002ac0:	7506                	ld	a0,96(sp)
    80002ac2:	0001b097          	auipc	ra,0x1b
    80002ac6:	36c080e7          	jalr	876(ra) # 8001de2e <_ZN4core3num23_$LT$impl$u20$usize$GT$11checked_add17he2495d381876d258E>
    80002aca:	e4aa                	sd	a0,72(sp)
    80002acc:	e8ae                	sd	a1,80(sp)
    80002ace:	a009                	j	80002ad0 <_ZN5alloc7raw_vec19RawVec$LT$T$C$A$GT$14grow_amortized17h6d7a8aee2de04232E+0x3e>
    80002ad0:	6646                	ld	a2,80(sp)
    80002ad2:	65a6                	ld	a1,72(sp)
    80002ad4:	4701                	li	a4,0
    80002ad6:	e1ba                	sd	a4,192(sp)
    80002ad8:	76ea                	ld	a3,184(sp)
    80002ada:	1108                	addi	a0,sp,160
    80002adc:	0000c097          	auipc	ra,0xc
    80002ae0:	c62080e7          	jalr	-926(ra) # 8000e73e <_ZN4core6option15Option$LT$T$GT$5ok_or17h7a4d5ef4770297f6E>
    80002ae4:	a009                	j	80002ae6 <_ZN5alloc7raw_vec19RawVec$LT$T$C$A$GT$14grow_amortized17h6d7a8aee2de04232E+0x54>
    80002ae6:	0128                	addi	a0,sp,136
    80002ae8:	110c                	addi	a1,sp,160
    80002aea:	0000a097          	auipc	ra,0xa
    80002aee:	69a080e7          	jalr	1690(ra) # 8000d184 <_ZN73_$LT$core..result..Result$LT$T$C$E$GT$$u20$as$u20$core..ops..try..Try$GT$11into_result17hda96dc8b8fa1398aE>
    80002af2:	a009                	j	80002af4 <_ZN5alloc7raw_vec19RawVec$LT$T$C$A$GT$14grow_amortized17h6d7a8aee2de04232E+0x62>
    80002af4:	652a                	ld	a0,136(sp)
    80002af6:	4581                	li	a1,0
    80002af8:	00b50463          	beq	a0,a1,80002b00 <_ZN5alloc7raw_vec19RawVec$LT$T$C$A$GT$14grow_amortized17h6d7a8aee2de04232E+0x6e>
    80002afc:	a009                	j	80002afe <_ZN5alloc7raw_vec19RawVec$LT$T$C$A$GT$14grow_amortized17h6d7a8aee2de04232E+0x6c>
    80002afe:	a005                	j	80002b1e <_ZN5alloc7raw_vec19RawVec$LT$T$C$A$GT$14grow_amortized17h6d7a8aee2de04232E+0x8c>
    80002b00:	7526                	ld	a0,104(sp)
    80002b02:	65ca                	ld	a1,144(sp)
    80002b04:	fe2e                	sd	a1,312(sp)
    80002b06:	e2ae                	sd	a1,320(sp)
        let cap = cmp::max(self.cap * 2, required_cap);
    80002b08:	6508                	ld	a0,8(a0)
    80002b0a:	0506                	slli	a0,a0,0x1
    80002b0c:	0001f097          	auipc	ra,0x1f
    80002b10:	254080e7          	jalr	596(ra) # 80021d60 <_ZN4core3cmp3max17h3dc8da765fcdebd4E>
    80002b14:	85aa                	mv	a1,a0
    80002b16:	e0ae                	sd	a1,64(sp)
    80002b18:	e6aa                	sd	a0,328(sp)
    80002b1a:	a035                	j	80002b46 <_ZN5alloc7raw_vec19RawVec$LT$T$C$A$GT$14grow_amortized17h6d7a8aee2de04232E+0xb4>
        let required_cap = len.checked_add(additional).ok_or(CapacityOverflow)?;
    80002b1c:	0000                	unimp
    80002b1e:	654a                	ld	a0,144(sp)
    80002b20:	65ea                	ld	a1,152(sp)
    80002b22:	f62a                	sd	a0,296(sp)
    80002b24:	fa2e                	sd	a1,304(sp)
    80002b26:	00013097          	auipc	ra,0x13
    80002b2a:	c54080e7          	jalr	-940(ra) # 8001577a <_ZN50_$LT$T$u20$as$u20$core..convert..From$LT$T$GT$$GT$4from17h00cb4931a375be30E>
    80002b2e:	f82a                	sd	a0,48(sp)
    80002b30:	fc2e                	sd	a1,56(sp)
    80002b32:	a009                	j	80002b34 <_ZN5alloc7raw_vec19RawVec$LT$T$C$A$GT$14grow_amortized17h6d7a8aee2de04232E+0xa2>
    80002b34:	7662                	ld	a2,56(sp)
    80002b36:	75c2                	ld	a1,48(sp)
    80002b38:	7546                	ld	a0,112(sp)
    80002b3a:	0000a097          	auipc	ra,0xa
    80002b3e:	4ee080e7          	jalr	1262(ra) # 8000d028 <_ZN73_$LT$core..result..Result$LT$T$C$E$GT$$u20$as$u20$core..ops..try..Try$GT$10from_error17h5998e5a20485011cE>
    80002b42:	a009                	j	80002b44 <_ZN5alloc7raw_vec19RawVec$LT$T$C$A$GT$14grow_amortized17h6d7a8aee2de04232E+0xb2>
    80002b44:	a855                	j	80002bf8 <_ZN5alloc7raw_vec19RawVec$LT$T$C$A$GT$14grow_amortized17h6d7a8aee2de04232E+0x166>
        let cap = cmp::max(Self::MIN_NON_ZERO_CAP, cap);
    80002b46:	6586                	ld	a1,64(sp)
    80002b48:	4521                	li	a0,8
    80002b4a:	0001f097          	auipc	ra,0x1f
    80002b4e:	216080e7          	jalr	534(ra) # 80021d60 <_ZN4core3cmp3max17h3dc8da765fcdebd4E>
    80002b52:	85aa                	mv	a1,a0
    80002b54:	f42e                	sd	a1,40(sp)
    80002b56:	eaaa                	sd	a0,336(sp)
    80002b58:	a009                	j	80002b5a <_ZN5alloc7raw_vec19RawVec$LT$T$C$A$GT$14grow_amortized17h6d7a8aee2de04232E+0xc8>
        let new_layout = Layout::array::<T>(cap);
    80002b5a:	7522                	ld	a0,40(sp)
    80002b5c:	00006097          	auipc	ra,0x6
    80002b60:	b08080e7          	jalr	-1272(ra) # 80008664 <_ZN4core5alloc6layout6Layout5array17h33220460c7f786e0E>
    80002b64:	862a                	mv	a2,a0
    80002b66:	ec32                	sd	a2,24(sp)
    80002b68:	862e                	mv	a2,a1
    80002b6a:	f032                	sd	a2,32(sp)
    80002b6c:	eeaa                	sd	a0,344(sp)
    80002b6e:	f2ae                	sd	a1,352(sp)
    80002b70:	a009                	j	80002b72 <_ZN5alloc7raw_vec19RawVec$LT$T$C$A$GT$14grow_amortized17h6d7a8aee2de04232E+0xe0>
        let ptr = finish_grow(new_layout, self.current_memory(), &mut self.alloc)?;
    80002b72:	75a6                	ld	a1,104(sp)
    80002b74:	19a8                	addi	a0,sp,248
    80002b76:	00000097          	auipc	ra,0x0
    80002b7a:	e78080e7          	jalr	-392(ra) # 800029ee <_ZN5alloc7raw_vec19RawVec$LT$T$C$A$GT$14current_memory17h47d07dfc1131b1d6E>
    80002b7e:	a009                	j	80002b80 <_ZN5alloc7raw_vec19RawVec$LT$T$C$A$GT$14grow_amortized17h6d7a8aee2de04232E+0xee>
    80002b80:	7726                	ld	a4,104(sp)
    80002b82:	7602                	ld	a2,32(sp)
    80002b84:	65e2                	ld	a1,24(sp)
    80002b86:	1188                	addi	a0,sp,224
    80002b88:	19b4                	addi	a3,sp,248
    80002b8a:	00000097          	auipc	ra,0x0
    80002b8e:	b6e080e7          	jalr	-1170(ra) # 800026f8 <_ZN5alloc7raw_vec11finish_grow17h67df8fd3b618c18aE>
    80002b92:	a009                	j	80002b94 <_ZN5alloc7raw_vec19RawVec$LT$T$C$A$GT$14grow_amortized17h6d7a8aee2de04232E+0x102>
    80002b94:	01a8                	addi	a0,sp,200
    80002b96:	118c                	addi	a1,sp,224
    80002b98:	0000a097          	auipc	ra,0xa
    80002b9c:	634080e7          	jalr	1588(ra) # 8000d1cc <_ZN73_$LT$core..result..Result$LT$T$C$E$GT$$u20$as$u20$core..ops..try..Try$GT$11into_result17hf2a730b9c7ab248fE>
    80002ba0:	a009                	j	80002ba2 <_ZN5alloc7raw_vec19RawVec$LT$T$C$A$GT$14grow_amortized17h6d7a8aee2de04232E+0x110>
    80002ba2:	652e                	ld	a0,200(sp)
    80002ba4:	4581                	li	a1,0
    80002ba6:	00b50463          	beq	a0,a1,80002bae <_ZN5alloc7raw_vec19RawVec$LT$T$C$A$GT$14grow_amortized17h6d7a8aee2de04232E+0x11c>
    80002baa:	a009                	j	80002bac <_ZN5alloc7raw_vec19RawVec$LT$T$C$A$GT$14grow_amortized17h6d7a8aee2de04232E+0x11a>
    80002bac:	a831                	j	80002bc8 <_ZN5alloc7raw_vec19RawVec$LT$T$C$A$GT$14grow_amortized17h6d7a8aee2de04232E+0x136>
    80002bae:	7526                	ld	a0,104(sp)
    80002bb0:	65ce                	ld	a1,208(sp)
    80002bb2:	666e                	ld	a2,216(sp)
    80002bb4:	feae                	sd	a1,376(sp)
    80002bb6:	e332                	sd	a2,384(sp)
    80002bb8:	e72e                	sd	a1,392(sp)
    80002bba:	eb32                	sd	a2,400(sp)
        self.set_ptr(ptr);
    80002bbc:	00000097          	auipc	ra,0x0
    80002bc0:	164080e7          	jalr	356(ra) # 80002d20 <_ZN5alloc7raw_vec19RawVec$LT$T$C$A$GT$7set_ptr17hbcba753f42d1a54eE>
    80002bc4:	a035                	j	80002bf0 <_ZN5alloc7raw_vec19RawVec$LT$T$C$A$GT$14grow_amortized17h6d7a8aee2de04232E+0x15e>
        let ptr = finish_grow(new_layout, self.current_memory(), &mut self.alloc)?;
    80002bc6:	0000                	unimp
    80002bc8:	654e                	ld	a0,208(sp)
    80002bca:	65ee                	ld	a1,216(sp)
    80002bcc:	f6aa                	sd	a0,360(sp)
    80002bce:	faae                	sd	a1,368(sp)
    80002bd0:	00013097          	auipc	ra,0x13
    80002bd4:	baa080e7          	jalr	-1110(ra) # 8001577a <_ZN50_$LT$T$u20$as$u20$core..convert..From$LT$T$GT$$GT$4from17h00cb4931a375be30E>
    80002bd8:	e42a                	sd	a0,8(sp)
    80002bda:	e82e                	sd	a1,16(sp)
    80002bdc:	a009                	j	80002bde <_ZN5alloc7raw_vec19RawVec$LT$T$C$A$GT$14grow_amortized17h6d7a8aee2de04232E+0x14c>
    80002bde:	6642                	ld	a2,16(sp)
    80002be0:	65a2                	ld	a1,8(sp)
    80002be2:	7546                	ld	a0,112(sp)
    80002be4:	0000a097          	auipc	ra,0xa
    80002be8:	444080e7          	jalr	1092(ra) # 8000d028 <_ZN73_$LT$core..result..Result$LT$T$C$E$GT$$u20$as$u20$core..ops..try..Try$GT$10from_error17h5998e5a20485011cE>
    80002bec:	a009                	j	80002bee <_ZN5alloc7raw_vec19RawVec$LT$T$C$A$GT$14grow_amortized17h6d7a8aee2de04232E+0x15c>
    80002bee:	a029                	j	80002bf8 <_ZN5alloc7raw_vec19RawVec$LT$T$C$A$GT$14grow_amortized17h6d7a8aee2de04232E+0x166>
    80002bf0:	75c6                	ld	a1,112(sp)
    80002bf2:	4501                	li	a0,0
        Ok(())
    80002bf4:	e188                	sd	a0,0(a1)
    }
    80002bf6:	a011                	j	80002bfa <_ZN5alloc7raw_vec19RawVec$LT$T$C$A$GT$14grow_amortized17h6d7a8aee2de04232E+0x168>
    80002bf8:	a009                	j	80002bfa <_ZN5alloc7raw_vec19RawVec$LT$T$C$A$GT$14grow_amortized17h6d7a8aee2de04232E+0x168>
    80002bfa:	60fa                	ld	ra,408(sp)
    80002bfc:	611d                	addi	sp,sp,416
    80002bfe:	8082                	ret

Disassembly of section .text._ZN5alloc7raw_vec19RawVec$LT$T$C$A$GT$16with_capacity_in17hb06502444696164dE:

0000000080002c00 <_ZN5alloc7raw_vec19RawVec$LT$T$C$A$GT$16with_capacity_in17hb06502444696164dE>:
    pub fn with_capacity_in(capacity: usize, alloc: A) -> Self {
    80002c00:	7179                	addi	sp,sp,-48
    80002c02:	f406                	sd	ra,40(sp)
    80002c04:	ec2a                	sd	a0,24(sp)
    80002c06:	4581                	li	a1,0
        Self::allocate_in(capacity, AllocInit::Uninitialized, alloc)
    80002c08:	00b10ba3          	sb	a1,23(sp)
    80002c0c:	00000097          	auipc	ra,0x0
    80002c10:	c5c080e7          	jalr	-932(ra) # 80002868 <_ZN5alloc7raw_vec19RawVec$LT$T$C$A$GT$11allocate_in17hb1a7e5211a2ca028E>
    80002c14:	e02a                	sd	a0,0(sp)
    80002c16:	e42e                	sd	a1,8(sp)
    80002c18:	a009                	j	80002c1a <_ZN5alloc7raw_vec19RawVec$LT$T$C$A$GT$16with_capacity_in17hb06502444696164dE+0x1a>
    }
    80002c1a:	65a2                	ld	a1,8(sp)
    80002c1c:	6502                	ld	a0,0(sp)
    80002c1e:	70a2                	ld	ra,40(sp)
    80002c20:	6145                	addi	sp,sp,48
    80002c22:	8082                	ret

Disassembly of section .text._ZN5alloc7raw_vec19RawVec$LT$T$C$A$GT$19capacity_from_bytes17hb8f80a7316d4a8fbE:

0000000080002c24 <_ZN5alloc7raw_vec19RawVec$LT$T$C$A$GT$19capacity_from_bytes17hb8f80a7316d4a8fbE>:
    fn capacity_from_bytes(excess: usize) -> usize {
    80002c24:	1141                	addi	sp,sp,-16
    80002c26:	e02a                	sd	a0,0(sp)
    80002c28:	e42a                	sd	a0,8(sp)
        excess / mem::size_of::<T>()
    80002c2a:	a009                	j	80002c2c <_ZN5alloc7raw_vec19RawVec$LT$T$C$A$GT$19capacity_from_bytes17hb8f80a7316d4a8fbE+0x8>
    80002c2c:	4501                	li	a0,0
    80002c2e:	e509                	bnez	a0,80002c38 <.LBB8_4>
    80002c30:	a009                	j	80002c32 <_ZN5alloc7raw_vec19RawVec$LT$T$C$A$GT$19capacity_from_bytes17hb8f80a7316d4a8fbE+0xe>
    }
    80002c32:	6502                	ld	a0,0(sp)
    80002c34:	0141                	addi	sp,sp,16
    80002c36:	8082                	ret

0000000080002c38 <.LBB8_4>:
        excess / mem::size_of::<T>()
    80002c38:	00023517          	auipc	a0,0x23
    80002c3c:	d0850513          	addi	a0,a0,-760 # 80025940 <str.0>

0000000080002c40 <.LBB8_5>:
    80002c40:	00023617          	auipc	a2,0x23
    80002c44:	ce860613          	addi	a2,a2,-792 # 80025928 <.L__unnamed_1>
    80002c48:	45e5                	li	a1,25
    80002c4a:	0001f097          	auipc	ra,0x1f
    80002c4e:	4b2080e7          	jalr	1202(ra) # 800220fc <_ZN4core9panicking5panic17h153a4ce3c60ede6bE>
	...

Disassembly of section .text._ZN5alloc7raw_vec19RawVec$LT$T$C$A$GT$23with_capacity_zeroed_in17hc0850ff3c2415cf8E:

0000000080002c54 <_ZN5alloc7raw_vec19RawVec$LT$T$C$A$GT$23with_capacity_zeroed_in17hc0850ff3c2415cf8E>:
    pub fn with_capacity_zeroed_in(capacity: usize, alloc: A) -> Self {
    80002c54:	7179                	addi	sp,sp,-48
    80002c56:	f406                	sd	ra,40(sp)
    80002c58:	ec2a                	sd	a0,24(sp)
    80002c5a:	4585                	li	a1,1
        Self::allocate_in(capacity, AllocInit::Zeroed, alloc)
    80002c5c:	00b10ba3          	sb	a1,23(sp)
    80002c60:	00000097          	auipc	ra,0x0
    80002c64:	c08080e7          	jalr	-1016(ra) # 80002868 <_ZN5alloc7raw_vec19RawVec$LT$T$C$A$GT$11allocate_in17hb1a7e5211a2ca028E>
    80002c68:	e02a                	sd	a0,0(sp)
    80002c6a:	e42e                	sd	a1,8(sp)
    80002c6c:	a009                	j	80002c6e <_ZN5alloc7raw_vec19RawVec$LT$T$C$A$GT$23with_capacity_zeroed_in17hc0850ff3c2415cf8E+0x1a>
    }
    80002c6e:	65a2                	ld	a1,8(sp)
    80002c70:	6502                	ld	a0,0(sp)
    80002c72:	70a2                	ld	ra,40(sp)
    80002c74:	6145                	addi	sp,sp,48
    80002c76:	8082                	ret

Disassembly of section .text._ZN5alloc7raw_vec19RawVec$LT$T$C$A$GT$3ptr17h887fa3437b1e26b7E:

0000000080002c78 <_ZN5alloc7raw_vec19RawVec$LT$T$C$A$GT$3ptr17h887fa3437b1e26b7E>:
    pub fn ptr(&self) -> *mut T {
    80002c78:	1101                	addi	sp,sp,-32
    80002c7a:	ec06                	sd	ra,24(sp)
    80002c7c:	e82a                	sd	a0,16(sp)
        self.ptr.as_ptr()
    80002c7e:	6108                	ld	a0,0(a0)
    80002c80:	00009097          	auipc	ra,0x9
    80002c84:	ef6080e7          	jalr	-266(ra) # 8000bb76 <_ZN4core3ptr6unique15Unique$LT$T$GT$6as_ptr17hc428d38b809aa8c2E>
    80002c88:	e42a                	sd	a0,8(sp)
    80002c8a:	a009                	j	80002c8c <_ZN5alloc7raw_vec19RawVec$LT$T$C$A$GT$3ptr17h887fa3437b1e26b7E+0x14>
    }
    80002c8c:	6522                	ld	a0,8(sp)
    80002c8e:	60e2                	ld	ra,24(sp)
    80002c90:	6105                	addi	sp,sp,32
    80002c92:	8082                	ret

Disassembly of section .text._ZN5alloc7raw_vec19RawVec$LT$T$C$A$GT$6new_in17hcde8bd186b8458cbE:

0000000080002c94 <_ZN5alloc7raw_vec19RawVec$LT$T$C$A$GT$6new_in17hcde8bd186b8458cbE>:
    pub const fn new_in(alloc: A) -> Self {
    80002c94:	7179                	addi	sp,sp,-48
        Self { ptr: Unique::dangling(), cap: 0, alloc }
    80002c96:	f406                	sd	ra,40(sp)
    80002c98:	00009097          	auipc	ra,0x9
    80002c9c:	f2e080e7          	jalr	-210(ra) # 8000bbc6 <_ZN4core3ptr6unique15Unique$LT$T$GT$8dangling17h9486dd80fcd97a92E>
    80002ca0:	e42a                	sd	a0,8(sp)
    80002ca2:	a009                	j	80002ca4 <_ZN5alloc7raw_vec19RawVec$LT$T$C$A$GT$6new_in17hcde8bd186b8458cbE+0x10>
    80002ca4:	6522                	ld	a0,8(sp)
    80002ca6:	e82a                	sd	a0,16(sp)
    80002ca8:	4581                	li	a1,0
    80002caa:	ec2e                	sd	a1,24(sp)
    }
    80002cac:	70a2                	ld	ra,40(sp)
    80002cae:	6145                	addi	sp,sp,48
    80002cb0:	8082                	ret

Disassembly of section .text._ZN5alloc7raw_vec19RawVec$LT$T$C$A$GT$7reserve17hb5cb67f1b8f5bd01E:

0000000080002cb2 <_ZN5alloc7raw_vec19RawVec$LT$T$C$A$GT$7reserve17hb5cb67f1b8f5bd01E>:
    pub fn reserve(&mut self, len: usize, additional: usize) {
    80002cb2:	715d                	addi	sp,sp,-80
    80002cb4:	e486                	sd	ra,72(sp)
    80002cb6:	e432                	sd	a2,8(sp)
    80002cb8:	e82e                	sd	a1,16(sp)
    80002cba:	ec2a                	sd	a0,24(sp)
    80002cbc:	f82a                	sd	a0,48(sp)
    80002cbe:	fc2e                	sd	a1,56(sp)
    80002cc0:	e0b2                	sd	a2,64(sp)
        if self.needs_to_grow(len, additional) {
    80002cc2:	00000097          	auipc	ra,0x0
    80002cc6:	cf6080e7          	jalr	-778(ra) # 800029b8 <_ZN5alloc7raw_vec19RawVec$LT$T$C$A$GT$13needs_to_grow17ha08818b631ce0004E>
    80002cca:	f02a                	sd	a0,32(sp)
    80002ccc:	a009                	j	80002cce <_ZN5alloc7raw_vec19RawVec$LT$T$C$A$GT$7reserve17hb5cb67f1b8f5bd01E+0x1c>
    80002cce:	7502                	ld	a0,32(sp)
    80002cd0:	4581                	li	a1,0
    80002cd2:	00b50b63          	beq	a0,a1,80002ce8 <_ZN5alloc7raw_vec19RawVec$LT$T$C$A$GT$7reserve17hb5cb67f1b8f5bd01E+0x36>
    80002cd6:	a009                	j	80002cd8 <_ZN5alloc7raw_vec19RawVec$LT$T$C$A$GT$7reserve17hb5cb67f1b8f5bd01E+0x26>
            do_reserve_and_handle(self, len, additional);
    80002cd8:	6622                	ld	a2,8(sp)
    80002cda:	65c2                	ld	a1,16(sp)
    80002cdc:	6562                	ld	a0,24(sp)
    80002cde:	00000097          	auipc	ra,0x0
    80002ce2:	014080e7          	jalr	20(ra) # 80002cf2 <_ZN5alloc7raw_vec19RawVec$LT$T$C$A$GT$7reserve21do_reserve_and_handle17h338385e566e859eeE>
    80002ce6:	a011                	j	80002cea <_ZN5alloc7raw_vec19RawVec$LT$T$C$A$GT$7reserve17hb5cb67f1b8f5bd01E+0x38>
        if self.needs_to_grow(len, additional) {
    80002ce8:	a011                	j	80002cec <_ZN5alloc7raw_vec19RawVec$LT$T$C$A$GT$7reserve17hb5cb67f1b8f5bd01E+0x3a>
    80002cea:	a009                	j	80002cec <_ZN5alloc7raw_vec19RawVec$LT$T$C$A$GT$7reserve17hb5cb67f1b8f5bd01E+0x3a>
    }
    80002cec:	60a6                	ld	ra,72(sp)
    80002cee:	6161                	addi	sp,sp,80
    80002cf0:	8082                	ret

Disassembly of section .text._ZN5alloc7raw_vec19RawVec$LT$T$C$A$GT$7reserve21do_reserve_and_handle17h338385e566e859eeE:

0000000080002cf2 <_ZN5alloc7raw_vec19RawVec$LT$T$C$A$GT$7reserve21do_reserve_and_handle17h338385e566e859eeE>:
        fn do_reserve_and_handle<T, A: Allocator>(
    80002cf2:	7139                	addi	sp,sp,-64
    80002cf4:	fc06                	sd	ra,56(sp)
    80002cf6:	86b2                	mv	a3,a2
    80002cf8:	862e                	mv	a2,a1
    80002cfa:	85aa                	mv	a1,a0
    80002cfc:	f02e                	sd	a1,32(sp)
    80002cfe:	f432                	sd	a2,40(sp)
    80002d00:	f836                	sd	a3,48(sp)
    80002d02:	0028                	addi	a0,sp,8
            handle_reserve(slf.grow_amortized(len, additional));
    80002d04:	00000097          	auipc	ra,0x0
    80002d08:	d8e080e7          	jalr	-626(ra) # 80002a92 <_ZN5alloc7raw_vec19RawVec$LT$T$C$A$GT$14grow_amortized17h6d7a8aee2de04232E>
    80002d0c:	a009                	j	80002d0e <_ZN5alloc7raw_vec19RawVec$LT$T$C$A$GT$7reserve21do_reserve_and_handle17h338385e566e859eeE+0x1c>
    80002d0e:	0028                	addi	a0,sp,8
    80002d10:	0001b097          	auipc	ra,0x1b
    80002d14:	680080e7          	jalr	1664(ra) # 8001e390 <_ZN5alloc7raw_vec14handle_reserve17h9818f7956a53f3d6E>
    80002d18:	a009                	j	80002d1a <_ZN5alloc7raw_vec19RawVec$LT$T$C$A$GT$7reserve21do_reserve_and_handle17h338385e566e859eeE+0x28>
        }
    80002d1a:	70e2                	ld	ra,56(sp)
    80002d1c:	6121                	addi	sp,sp,64
    80002d1e:	8082                	ret

Disassembly of section .text._ZN5alloc7raw_vec19RawVec$LT$T$C$A$GT$7set_ptr17hbcba753f42d1a54eE:

0000000080002d20 <_ZN5alloc7raw_vec19RawVec$LT$T$C$A$GT$7set_ptr17hbcba753f42d1a54eE>:
    fn set_ptr(&mut self, ptr: NonNull<[u8]>) {
    80002d20:	711d                	addi	sp,sp,-96
    80002d22:	ec86                	sd	ra,88(sp)
    80002d24:	f032                	sd	a2,32(sp)
    80002d26:	862e                	mv	a2,a1
    80002d28:	7582                	ld	a1,32(sp)
    80002d2a:	f432                	sd	a2,40(sp)
    80002d2c:	862a                	mv	a2,a0
    80002d2e:	7522                	ld	a0,40(sp)
    80002d30:	f832                	sd	a2,48(sp)
    80002d32:	e0b2                	sd	a2,64(sp)
    80002d34:	e4aa                	sd	a0,72(sp)
    80002d36:	e8ae                	sd	a1,80(sp)
        self.ptr = unsafe { Unique::new_unchecked(ptr.cast().as_ptr()) };
    80002d38:	0000c097          	auipc	ra,0xc
    80002d3c:	680080e7          	jalr	1664(ra) # 8000f3b8 <_ZN4core3ptr8non_null16NonNull$LT$T$GT$4cast17he3c6d28f0e68e811E>
    80002d40:	fc2a                	sd	a0,56(sp)
    80002d42:	a009                	j	80002d44 <_ZN5alloc7raw_vec19RawVec$LT$T$C$A$GT$7set_ptr17hbcba753f42d1a54eE+0x24>
    80002d44:	7562                	ld	a0,56(sp)
    80002d46:	0000c097          	auipc	ra,0xc
    80002d4a:	6f2080e7          	jalr	1778(ra) # 8000f438 <_ZN4core3ptr8non_null16NonNull$LT$T$GT$6as_ptr17h729713db2b300d39E>
    80002d4e:	ec2a                	sd	a0,24(sp)
    80002d50:	a009                	j	80002d52 <_ZN5alloc7raw_vec19RawVec$LT$T$C$A$GT$7set_ptr17hbcba753f42d1a54eE+0x32>
    80002d52:	6562                	ld	a0,24(sp)
    80002d54:	00009097          	auipc	ra,0x9
    80002d58:	d12080e7          	jalr	-750(ra) # 8000ba66 <_ZN4core3ptr6unique15Unique$LT$T$GT$13new_unchecked17h620617f59cddd065E>
    80002d5c:	e82a                	sd	a0,16(sp)
    80002d5e:	a009                	j	80002d60 <_ZN5alloc7raw_vec19RawVec$LT$T$C$A$GT$7set_ptr17hbcba753f42d1a54eE+0x40>
    80002d60:	7582                	ld	a1,32(sp)
    80002d62:	7522                	ld	a0,40(sp)
    80002d64:	6642                	ld	a2,16(sp)
    80002d66:	76c2                	ld	a3,48(sp)
    80002d68:	e290                	sd	a2,0(a3)
        self.cap = Self::capacity_from_bytes(ptr.len());
    80002d6a:	0000c097          	auipc	ra,0xc
    80002d6e:	7e6080e7          	jalr	2022(ra) # 8000f550 <_ZN4core3ptr8non_null26NonNull$LT$$u5b$T$u5d$$GT$3len17h17d848b65404492bE>
    80002d72:	e42a                	sd	a0,8(sp)
    80002d74:	a009                	j	80002d76 <_ZN5alloc7raw_vec19RawVec$LT$T$C$A$GT$7set_ptr17hbcba753f42d1a54eE+0x56>
    80002d76:	6522                	ld	a0,8(sp)
    80002d78:	00000097          	auipc	ra,0x0
    80002d7c:	eac080e7          	jalr	-340(ra) # 80002c24 <_ZN5alloc7raw_vec19RawVec$LT$T$C$A$GT$19capacity_from_bytes17hb8f80a7316d4a8fbE>
    80002d80:	e02a                	sd	a0,0(sp)
    80002d82:	a009                	j	80002d84 <_ZN5alloc7raw_vec19RawVec$LT$T$C$A$GT$7set_ptr17hbcba753f42d1a54eE+0x64>
    80002d84:	6502                	ld	a0,0(sp)
    80002d86:	75c2                	ld	a1,48(sp)
    80002d88:	e588                	sd	a0,8(a1)
    }
    80002d8a:	60e6                	ld	ra,88(sp)
    80002d8c:	6125                	addi	sp,sp,96
    80002d8e:	8082                	ret

Disassembly of section .text._ZN6kernel4arch5riscv8register5clint10read_mtime17h47cb1a320cb6e740E:

0000000080002d90 <_ZN6kernel4arch5riscv8register5clint10read_mtime17h47cb1a320cb6e740E>:
use crate::arch::riscv::qemu::layout::{CLINT_MTIME, CLINT_MTIMECMP, CLINT};

// core local interruptor (CLINT), which contains the timer.

#[inline]
unsafe fn read_mtime() -> u64 {
    80002d90:	1101                	addi	sp,sp,-32
    80002d92:	ec06                	sd	ra,24(sp)
    80002d94:	0200c537          	lui	a0,0x200c
    80002d98:	3561                	addiw	a0,a0,-8
    ptr::read_volatile(Into::<usize>::into(CLINT_MTIME) as *const u64)
    80002d9a:	00009097          	auipc	ra,0x9
    80002d9e:	c3c080e7          	jalr	-964(ra) # 8000b9d6 <_ZN50_$LT$T$u20$as$u20$core..convert..Into$LT$U$GT$$GT$4into17hbecc82c6a2b59487E>
    80002da2:	e82a                	sd	a0,16(sp)
    80002da4:	a009                	j	80002da6 <_ZN6kernel4arch5riscv8register5clint10read_mtime17h47cb1a320cb6e740E+0x16>
    80002da6:	6542                	ld	a0,16(sp)
    80002da8:	00015097          	auipc	ra,0x15
    80002dac:	62a080e7          	jalr	1578(ra) # 800183d2 <_ZN4core3ptr13read_volatile17h53ed030574802bd4E>
    80002db0:	e42a                	sd	a0,8(sp)
    80002db2:	a009                	j	80002db4 <_ZN6kernel4arch5riscv8register5clint10read_mtime17h47cb1a320cb6e740E+0x24>
}
    80002db4:	6522                	ld	a0,8(sp)
    80002db6:	60e2                	ld	ra,24(sp)
    80002db8:	6105                	addi	sp,sp,32
    80002dba:	8082                	ret

Disassembly of section .text._ZN6kernel4arch5riscv8register5clint14write_mtimecmp17h37dad6df38dd09a3E:

0000000080002dbc <_ZN6kernel4arch5riscv8register5clint14write_mtimecmp17h37dad6df38dd09a3E>:

unsafe fn write_mtimecmp(mhartid:usize, value: u64) {
    80002dbc:	715d                	addi	sp,sp,-80
    80002dbe:	e486                	sd	ra,72(sp)
    80002dc0:	ec2e                	sd	a1,24(sp)
    80002dc2:	f02a                	sd	a0,32(sp)
    80002dc4:	f82a                	sd	a0,48(sp)
    80002dc6:	fc2e                	sd	a1,56(sp)
    80002dc8:	02004537          	lui	a0,0x2004
    let offset = Into::<usize>::into(CLINT_MTIMECMP) + 8*mhartid;
    80002dcc:	00009097          	auipc	ra,0x9
    80002dd0:	c0a080e7          	jalr	-1014(ra) # 8000b9d6 <_ZN50_$LT$T$u20$as$u20$core..convert..Into$LT$U$GT$$GT$4into17hbecc82c6a2b59487E>
    80002dd4:	f42a                	sd	a0,40(sp)
    80002dd6:	a009                	j	80002dd8 <_ZN6kernel4arch5riscv8register5clint14write_mtimecmp17h37dad6df38dd09a3E+0x1c>
    80002dd8:	7582                	ld	a1,32(sp)
    80002dda:	4505                	li	a0,1
    80002ddc:	1576                	slli	a0,a0,0x3d
    80002dde:	157d                	addi	a0,a0,-1
    80002de0:	8d6d                	and	a0,a0,a1
    80002de2:	00359613          	slli	a2,a1,0x3
    80002de6:	e832                	sd	a2,16(sp)
    80002de8:	02b51563          	bne	a0,a1,80002e12 <.LBB1_7>
    80002dec:	a009                	j	80002dee <_ZN6kernel4arch5riscv8register5clint14write_mtimecmp17h37dad6df38dd09a3E+0x32>
    80002dee:	75a2                	ld	a1,40(sp)
    80002df0:	6542                	ld	a0,16(sp)
    80002df2:	952e                	add	a0,a0,a1
    80002df4:	e42a                	sd	a0,8(sp)
    80002df6:	02b56d63          	bltu	a0,a1,80002e30 <.LBB1_9>
    80002dfa:	a009                	j	80002dfc <_ZN6kernel4arch5riscv8register5clint14write_mtimecmp17h37dad6df38dd09a3E+0x40>
    80002dfc:	65e2                	ld	a1,24(sp)
    80002dfe:	6522                	ld	a0,8(sp)
    80002e00:	e0aa                	sd	a0,64(sp)
    ptr::write_volatile(offset as *mut u64, value);
    80002e02:	00015097          	auipc	ra,0x15
    80002e06:	5f0080e7          	jalr	1520(ra) # 800183f2 <_ZN4core3ptr14write_volatile17h935b49f1a63f6714E>
    80002e0a:	a009                	j	80002e0c <_ZN6kernel4arch5riscv8register5clint14write_mtimecmp17h37dad6df38dd09a3E+0x50>
}
    80002e0c:	60a6                	ld	ra,72(sp)
    80002e0e:	6161                	addi	sp,sp,80
    80002e10:	8082                	ret

0000000080002e12 <.LBB1_7>:
    let offset = Into::<usize>::into(CLINT_MTIMECMP) + 8*mhartid;
    80002e12:	00023517          	auipc	a0,0x23
    80002e16:	b6e50513          	addi	a0,a0,-1170 # 80025980 <str.0>

0000000080002e1a <.LBB1_8>:
    80002e1a:	00023617          	auipc	a2,0x23
    80002e1e:	b4660613          	addi	a2,a2,-1210 # 80025960 <.L__unnamed_1>
    80002e22:	02100593          	li	a1,33
    80002e26:	0001f097          	auipc	ra,0x1f
    80002e2a:	2d6080e7          	jalr	726(ra) # 800220fc <_ZN4core9panicking5panic17h153a4ce3c60ede6bE>
	...

0000000080002e30 <.LBB1_9>:
    80002e30:	00023517          	auipc	a0,0x23
    80002e34:	b9050513          	addi	a0,a0,-1136 # 800259c0 <str.1>

0000000080002e38 <.LBB1_10>:
    80002e38:	00023617          	auipc	a2,0x23
    80002e3c:	b7060613          	addi	a2,a2,-1168 # 800259a8 <.L__unnamed_2>
    80002e40:	45f1                	li	a1,28
    80002e42:	0001f097          	auipc	ra,0x1f
    80002e46:	2ba080e7          	jalr	698(ra) # 800220fc <_ZN4core9panicking5panic17h153a4ce3c60ede6bE>
	...

Disassembly of section .text._ZN6kernel4arch5riscv8register5clint12add_mtimecmp17hca3030d0d062e6f9E:

0000000080002e4c <_ZN6kernel4arch5riscv8register5clint12add_mtimecmp17hca3030d0d062e6f9E>:

pub unsafe fn add_mtimecmp(mhartid:usize, interval:u64){
    80002e4c:	7139                	addi	sp,sp,-64
    80002e4e:	fc06                	sd	ra,56(sp)
    80002e50:	e42e                	sd	a1,8(sp)
    80002e52:	e82a                	sd	a0,16(sp)
    80002e54:	f02a                	sd	a0,32(sp)
    80002e56:	f42e                	sd	a1,40(sp)
    let value = read_mtime();
    80002e58:	00000097          	auipc	ra,0x0
    80002e5c:	f38080e7          	jalr	-200(ra) # 80002d90 <_ZN6kernel4arch5riscv8register5clint10read_mtime17h47cb1a320cb6e740E>
    80002e60:	85aa                	mv	a1,a0
    80002e62:	ec2e                	sd	a1,24(sp)
    80002e64:	f82a                	sd	a0,48(sp)
    80002e66:	a009                	j	80002e68 <_ZN6kernel4arch5riscv8register5clint12add_mtimecmp17hca3030d0d062e6f9E+0x1c>
    write_mtimecmp(mhartid, value+interval);
    80002e68:	65e2                	ld	a1,24(sp)
    80002e6a:	6522                	ld	a0,8(sp)
    80002e6c:	952e                	add	a0,a0,a1
    80002e6e:	e02a                	sd	a0,0(sp)
    80002e70:	00b56d63          	bltu	a0,a1,80002e8a <.LBB2_5>
    80002e74:	a009                	j	80002e76 <_ZN6kernel4arch5riscv8register5clint12add_mtimecmp17hca3030d0d062e6f9E+0x2a>
    80002e76:	6582                	ld	a1,0(sp)
    80002e78:	6542                	ld	a0,16(sp)
    80002e7a:	00000097          	auipc	ra,0x0
    80002e7e:	f42080e7          	jalr	-190(ra) # 80002dbc <_ZN6kernel4arch5riscv8register5clint14write_mtimecmp17h37dad6df38dd09a3E>
    80002e82:	a009                	j	80002e84 <_ZN6kernel4arch5riscv8register5clint12add_mtimecmp17hca3030d0d062e6f9E+0x38>
}
    80002e84:	70e2                	ld	ra,56(sp)
    80002e86:	6121                	addi	sp,sp,64
    80002e88:	8082                	ret

0000000080002e8a <.LBB2_5>:
    write_mtimecmp(mhartid, value+interval);
    80002e8a:	00023517          	auipc	a0,0x23
    80002e8e:	b3650513          	addi	a0,a0,-1226 # 800259c0 <str.1>

0000000080002e92 <.LBB2_6>:
    80002e92:	00023617          	auipc	a2,0x23
    80002e96:	b4e60613          	addi	a2,a2,-1202 # 800259e0 <.L__unnamed_3>
    80002e9a:	45f1                	li	a1,28
    80002e9c:	0001f097          	auipc	ra,0x1f
    80002ea0:	260080e7          	jalr	608(ra) # 800220fc <_ZN4core9panicking5panic17h153a4ce3c60ede6bE>
	...

Disassembly of section .text._ZN6kernel4arch5riscv8register5clint13count_mtiecmp17h29e162b64ddfbfccE:

0000000080002ea6 <_ZN6kernel4arch5riscv8register5clint13count_mtiecmp17h29e162b64ddfbfccE>:

pub fn count_mtiecmp(mhartid:usize) -> usize{
    80002ea6:	7139                	addi	sp,sp,-64
    80002ea8:	fc06                	sd	ra,56(sp)
    80002eaa:	ec2a                	sd	a0,24(sp)
    80002eac:	f42a                	sd	a0,40(sp)
    80002eae:	02000537          	lui	a0,0x2000
    let ret:usize;
    ret = Into::<usize>::into(CLINT) + 8*mhartid + 0x4000;
    80002eb2:	00009097          	auipc	ra,0x9
    80002eb6:	b24080e7          	jalr	-1244(ra) # 8000b9d6 <_ZN50_$LT$T$u20$as$u20$core..convert..Into$LT$U$GT$$GT$4into17hbecc82c6a2b59487E>
    80002eba:	f02a                	sd	a0,32(sp)
    80002ebc:	a009                	j	80002ebe <_ZN6kernel4arch5riscv8register5clint13count_mtiecmp17h29e162b64ddfbfccE+0x18>
    80002ebe:	65e2                	ld	a1,24(sp)
    80002ec0:	4505                	li	a0,1
    80002ec2:	1576                	slli	a0,a0,0x3d
    80002ec4:	157d                	addi	a0,a0,-1
    80002ec6:	8d6d                	and	a0,a0,a1
    80002ec8:	00359613          	slli	a2,a1,0x3
    80002ecc:	e832                	sd	a2,16(sp)
    80002ece:	02b51663          	bne	a0,a1,80002efa <.LBB3_8>
    80002ed2:	a009                	j	80002ed4 <_ZN6kernel4arch5riscv8register5clint13count_mtiecmp17h29e162b64ddfbfccE+0x2e>
    80002ed4:	7582                	ld	a1,32(sp)
    80002ed6:	6542                	ld	a0,16(sp)
    80002ed8:	952e                	add	a0,a0,a1
    80002eda:	e42a                	sd	a0,8(sp)
    80002edc:	02b56e63          	bltu	a0,a1,80002f18 <.LBB3_10>
    80002ee0:	a009                	j	80002ee2 <_ZN6kernel4arch5riscv8register5clint13count_mtiecmp17h29e162b64ddfbfccE+0x3c>
    80002ee2:	65a2                	ld	a1,8(sp)
    80002ee4:	6511                	lui	a0,0x4
    80002ee6:	952e                	add	a0,a0,a1
    80002ee8:	e02a                	sd	a0,0(sp)
    80002eea:	04b56563          	bltu	a0,a1,80002f34 <.LBB3_12>
    80002eee:	a009                	j	80002ef0 <_ZN6kernel4arch5riscv8register5clint13count_mtiecmp17h29e162b64ddfbfccE+0x4a>
    80002ef0:	6502                	ld	a0,0(sp)
    80002ef2:	f82a                	sd	a0,48(sp)
    ret
}
    80002ef4:	70e2                	ld	ra,56(sp)
    80002ef6:	6121                	addi	sp,sp,64
    80002ef8:	8082                	ret

0000000080002efa <.LBB3_8>:
    ret = Into::<usize>::into(CLINT) + 8*mhartid + 0x4000;
    80002efa:	00023517          	auipc	a0,0x23
    80002efe:	a8650513          	addi	a0,a0,-1402 # 80025980 <str.0>

0000000080002f02 <.LBB3_9>:
    80002f02:	00023617          	auipc	a2,0x23
    80002f06:	af660613          	addi	a2,a2,-1290 # 800259f8 <.L__unnamed_4>
    80002f0a:	02100593          	li	a1,33
    80002f0e:	0001f097          	auipc	ra,0x1f
    80002f12:	1ee080e7          	jalr	494(ra) # 800220fc <_ZN4core9panicking5panic17h153a4ce3c60ede6bE>
	...

0000000080002f18 <.LBB3_10>:
    80002f18:	00023517          	auipc	a0,0x23
    80002f1c:	aa850513          	addi	a0,a0,-1368 # 800259c0 <str.1>

0000000080002f20 <.LBB3_11>:
    80002f20:	00023617          	auipc	a2,0x23
    80002f24:	af060613          	addi	a2,a2,-1296 # 80025a10 <.L__unnamed_5>
    80002f28:	45f1                	li	a1,28
    80002f2a:	0001f097          	auipc	ra,0x1f
    80002f2e:	1d2080e7          	jalr	466(ra) # 800220fc <_ZN4core9panicking5panic17h153a4ce3c60ede6bE>
	...

0000000080002f34 <.LBB3_12>:
    80002f34:	00023517          	auipc	a0,0x23
    80002f38:	a8c50513          	addi	a0,a0,-1396 # 800259c0 <str.1>

0000000080002f3c <.LBB3_13>:
    80002f3c:	00023617          	auipc	a2,0x23
    80002f40:	ad460613          	addi	a2,a2,-1324 # 80025a10 <.L__unnamed_5>
    80002f44:	45f1                	li	a1,28
    80002f46:	0001f097          	auipc	ra,0x1f
    80002f4a:	1b6080e7          	jalr	438(ra) # 800220fc <_ZN4core9panicking5panic17h153a4ce3c60ede6bE>
	...

Disassembly of section .text._ZN4core3ptr9const_ptr33_$LT$impl$u20$$BP$const$u20$T$GT$6as_ref17he2102635824876d2E:

0000000080002f50 <_ZN4core3ptr9const_ptr33_$LT$impl$u20$$BP$const$u20$T$GT$6as_ref17he2102635824876d2E>:
    ///     println!("We got back the value: {}!", val_back);
    /// }
    /// ```
    #[stable(feature = "ptr_as_ref", since = "1.9.0")]
    #[inline]
    pub unsafe fn as_ref<'a>(self) -> Option<&'a T> {
    80002f50:	7179                	addi	sp,sp,-48
    80002f52:	f406                	sd	ra,40(sp)
    80002f54:	e42a                	sd	a0,8(sp)
    80002f56:	f02a                	sd	a0,32(sp)
        // SAFETY: the caller must guarantee that `self` is valid
        // for a reference if it isn't null.
        if self.is_null() { None } else { unsafe { Some(&*self) } }
    80002f58:	00000097          	auipc	ra,0x0
    80002f5c:	02a080e7          	jalr	42(ra) # 80002f82 <_ZN4core3ptr9const_ptr33_$LT$impl$u20$$BP$const$u20$T$GT$7is_null17hb09234d1bdc9d8a1E>
    80002f60:	e82a                	sd	a0,16(sp)
    80002f62:	a009                	j	80002f64 <_ZN4core3ptr9const_ptr33_$LT$impl$u20$$BP$const$u20$T$GT$6as_ref17he2102635824876d2E+0x14>
    80002f64:	6542                	ld	a0,16(sp)
    80002f66:	4581                	li	a1,0
    80002f68:	00b50663          	beq	a0,a1,80002f74 <_ZN4core3ptr9const_ptr33_$LT$impl$u20$$BP$const$u20$T$GT$6as_ref17he2102635824876d2E+0x24>
    80002f6c:	a009                	j	80002f6e <_ZN4core3ptr9const_ptr33_$LT$impl$u20$$BP$const$u20$T$GT$6as_ref17he2102635824876d2E+0x1e>
    80002f6e:	4501                	li	a0,0
    80002f70:	ec2a                	sd	a0,24(sp)
    80002f72:	a021                	j	80002f7a <_ZN4core3ptr9const_ptr33_$LT$impl$u20$$BP$const$u20$T$GT$6as_ref17he2102635824876d2E+0x2a>
    80002f74:	6522                	ld	a0,8(sp)
    80002f76:	ec2a                	sd	a0,24(sp)
    80002f78:	a009                	j	80002f7a <_ZN4core3ptr9const_ptr33_$LT$impl$u20$$BP$const$u20$T$GT$6as_ref17he2102635824876d2E+0x2a>
    }
    80002f7a:	6562                	ld	a0,24(sp)
    80002f7c:	70a2                	ld	ra,40(sp)
    80002f7e:	6145                	addi	sp,sp,48
    80002f80:	8082                	ret

Disassembly of section .text._ZN4core3ptr9const_ptr33_$LT$impl$u20$$BP$const$u20$T$GT$7is_null17hb09234d1bdc9d8a1E:

0000000080002f82 <_ZN4core3ptr9const_ptr33_$LT$impl$u20$$BP$const$u20$T$GT$7is_null17hb09234d1bdc9d8a1E>:
    pub const fn is_null(self) -> bool {
    80002f82:	1101                	addi	sp,sp,-32
    80002f84:	ec06                	sd	ra,24(sp)
    80002f86:	e82a                	sd	a0,16(sp)
        (self as *const u8).guaranteed_eq(null())
    80002f88:	e42a                	sd	a0,8(sp)
    80002f8a:	a009                	j	80002f8c <_ZN4core3ptr9const_ptr33_$LT$impl$u20$$BP$const$u20$T$GT$7is_null17hb09234d1bdc9d8a1E+0xa>
    80002f8c:	6522                	ld	a0,8(sp)
    80002f8e:	4581                	li	a1,0
    80002f90:	0001f097          	auipc	ra,0x1f
    80002f94:	f4c080e7          	jalr	-180(ra) # 80021edc <_ZN4core3ptr9const_ptr33_$LT$impl$u20$$BP$const$u20$T$GT$13guaranteed_eq17h0ce622e77376dc6cE>
    80002f98:	e02a                	sd	a0,0(sp)
    80002f9a:	a009                	j	80002f9c <_ZN4core3ptr9const_ptr33_$LT$impl$u20$$BP$const$u20$T$GT$7is_null17hb09234d1bdc9d8a1E+0x1a>
    }
    80002f9c:	6502                	ld	a0,0(sp)
    80002f9e:	60e2                	ld	ra,24(sp)
    80002fa0:	6105                	addi	sp,sp,32
    80002fa2:	8082                	ret

Disassembly of section .text._ZN6kernel2fs3bio6Bcache5binit17heeb55dbf2032387dE:

0000000080002fa4 <_ZN6kernel2fs3bio6Bcache5binit17heeb55dbf2032387dE>:
        }
    }

    /// Init the bcache.
    /// Should only be called once when the kernel inits itself.
    pub fn binit(&self) {
    80002fa4:	7125                	addi	sp,sp,-416
    80002fa6:	ef06                	sd	ra,408(sp)
    80002fa8:	faaa                	sd	a0,368(sp)
        let mut ctrl = self.ctrl.acquire();
    80002faa:	0000d097          	auipc	ra,0xd
    80002fae:	3ea080e7          	jalr	1002(ra) # 80010394 <_ZN6kernel4lock8spinlock17Spinlock$LT$T$GT$7acquire17h4c9081acf22588feE>
    80002fb2:	f22a                	sd	a0,288(sp)
    80002fb4:	a009                	j	80002fb6 <_ZN6kernel2fs3bio6Bcache5binit17heeb55dbf2032387dE+0x12>
    80002fb6:	1208                	addi	a0,sp,288
        let len = ctrl.inner.len();
    80002fb8:	0000e097          	auipc	ra,0xe
    80002fbc:	398080e7          	jalr	920(ra) # 80011350 <_ZN90_$LT$kernel..lock..spinlock..SpinlockGuard$LT$T$GT$$u20$as$u20$core..ops..deref..Deref$GT$5deref17hc8a5a3c7c4ffa947E>
    80002fc0:	ee2a                	sd	a0,280(sp)
    80002fc2:	a009                	j	80002fc4 <_ZN6kernel2fs3bio6Bcache5binit17heeb55dbf2032387dE+0x20>
    80002fc4:	6572                	ld	a0,280(sp)
    80002fc6:	45f9                	li	a1,30
    80002fc8:	00002097          	auipc	ra,0x2
    80002fcc:	698080e7          	jalr	1688(ra) # 80005660 <_ZN4core5slice29_$LT$impl$u20$$u5b$T$u5d$$GT$3len17h0b5a743241a7cbfaE>
    80002fd0:	85aa                	mv	a1,a0
    80002fd2:	ea2e                	sd	a1,272(sp)
    80002fd4:	feaa                	sd	a0,376(sp)
    80002fd6:	a009                	j	80002fd8 <_ZN6kernel2fs3bio6Bcache5binit17heeb55dbf2032387dE+0x34>
    80002fd8:	1208                	addi	a0,sp,288

        // init the head and tail of the lru list
        ctrl.head = &mut ctrl.inner[0];
    80002fda:	0000e097          	auipc	ra,0xe
    80002fde:	434080e7          	jalr	1076(ra) # 8001140e <_ZN93_$LT$kernel..lock..spinlock..SpinlockGuard$LT$T$GT$$u20$as$u20$core..ops..deref..DerefMut$GT$9deref_mut17h7fbd4bc7b8273f3cE>
    80002fe2:	e62a                	sd	a0,264(sp)
    80002fe4:	a009                	j	80002fe6 <_ZN6kernel2fs3bio6Bcache5binit17heeb55dbf2032387dE+0x42>
    80002fe6:	6532                	ld	a0,264(sp)
    80002fe8:	fdaa                	sd	a0,248(sp)
    80002fea:	1208                	addi	a0,sp,288
    80002fec:	0000e097          	auipc	ra,0xe
    80002ff0:	422080e7          	jalr	1058(ra) # 8001140e <_ZN93_$LT$kernel..lock..spinlock..SpinlockGuard$LT$T$GT$$u20$as$u20$core..ops..deref..DerefMut$GT$9deref_mut17h7fbd4bc7b8273f3cE>
    80002ff4:	e22a                	sd	a0,256(sp)
    80002ff6:	a009                	j	80002ff8 <_ZN6kernel2fs3bio6Bcache5binit17heeb55dbf2032387dE+0x54>
    80002ff8:	756e                	ld	a0,248(sp)
    80002ffa:	6592                	ld	a1,256(sp)
    80002ffc:	4aa5b823          	sd	a0,1200(a1)
    80003000:	1208                	addi	a0,sp,288
        ctrl.tail = &mut ctrl.inner[len-1];
    80003002:	0000e097          	auipc	ra,0xe
    80003006:	40c080e7          	jalr	1036(ra) # 8001140e <_ZN93_$LT$kernel..lock..spinlock..SpinlockGuard$LT$T$GT$$u20$as$u20$core..ops..deref..DerefMut$GT$9deref_mut17h7fbd4bc7b8273f3cE>
    8000300a:	f9aa                	sd	a0,240(sp)
    8000300c:	a009                	j	8000300e <_ZN6kernel2fs3bio6Bcache5binit17heeb55dbf2032387dE+0x6a>
    8000300e:	6552                	ld	a0,272(sp)
    80003010:	fff50593          	addi	a1,a0,-1
    80003014:	f5ae                	sd	a1,232(sp)
    80003016:	28b56263          	bltu	a0,a1,8000329a <.LBB0_62>
    8000301a:	a009                	j	8000301c <_ZN6kernel2fs3bio6Bcache5binit17heeb55dbf2032387dE+0x78>
    8000301c:	75ae                	ld	a1,232(sp)
    8000301e:	4575                	li	a0,29
    80003020:	28b56c63          	bltu	a0,a1,800032b8 <.LBB0_63+0x16>
    80003024:	a009                	j	80003026 <_ZN6kernel2fs3bio6Bcache5binit17heeb55dbf2032387dE+0x82>
    80003026:	754e                	ld	a0,240(sp)
    80003028:	75ae                	ld	a1,232(sp)
    8000302a:	02800613          	li	a2,40
    8000302e:	02c585b3          	mul	a1,a1,a2
    80003032:	952e                	add	a0,a0,a1
    80003034:	edaa                	sd	a0,216(sp)
    80003036:	1208                	addi	a0,sp,288
    80003038:	0000e097          	auipc	ra,0xe
    8000303c:	3d6080e7          	jalr	982(ra) # 8001140e <_ZN93_$LT$kernel..lock..spinlock..SpinlockGuard$LT$T$GT$$u20$as$u20$core..ops..deref..DerefMut$GT$9deref_mut17h7fbd4bc7b8273f3cE>
    80003040:	f1aa                	sd	a0,224(sp)
    80003042:	a009                	j	80003044 <_ZN6kernel2fs3bio6Bcache5binit17heeb55dbf2032387dE+0xa0>
    80003044:	656e                	ld	a0,216(sp)
    80003046:	758e                	ld	a1,224(sp)
    80003048:	4aa5bc23          	sd	a0,1208(a1)

        // init prev and next field
        ctrl.inner[0].prev = ptr::null_mut();
    8000304c:	a009                	j	8000304e <_ZN6kernel2fs3bio6Bcache5binit17heeb55dbf2032387dE+0xaa>
    8000304e:	1208                	addi	a0,sp,288
    80003050:	0000e097          	auipc	ra,0xe
    80003054:	3be080e7          	jalr	958(ra) # 8001140e <_ZN93_$LT$kernel..lock..spinlock..SpinlockGuard$LT$T$GT$$u20$as$u20$core..ops..deref..DerefMut$GT$9deref_mut17h7fbd4bc7b8273f3cE>
    80003058:	e9aa                	sd	a0,208(sp)
    8000305a:	a009                	j	8000305c <_ZN6kernel2fs3bio6Bcache5binit17heeb55dbf2032387dE+0xb8>
    8000305c:	65ce                	ld	a1,208(sp)
    8000305e:	4501                	li	a0,0
    80003060:	e188                	sd	a0,0(a1)
    80003062:	1208                	addi	a0,sp,288
        ctrl.inner[0].next = &mut ctrl.inner[1];
    80003064:	0000e097          	auipc	ra,0xe
    80003068:	3aa080e7          	jalr	938(ra) # 8001140e <_ZN93_$LT$kernel..lock..spinlock..SpinlockGuard$LT$T$GT$$u20$as$u20$core..ops..deref..DerefMut$GT$9deref_mut17h7fbd4bc7b8273f3cE>
    8000306c:	e5aa                	sd	a0,200(sp)
    8000306e:	a009                	j	80003070 <_ZN6kernel2fs3bio6Bcache5binit17heeb55dbf2032387dE+0xcc>
    80003070:	652e                	ld	a0,200(sp)
    80003072:	02850513          	addi	a0,a0,40
    80003076:	fd2a                	sd	a0,184(sp)
    80003078:	1208                	addi	a0,sp,288
    8000307a:	0000e097          	auipc	ra,0xe
    8000307e:	394080e7          	jalr	916(ra) # 8001140e <_ZN93_$LT$kernel..lock..spinlock..SpinlockGuard$LT$T$GT$$u20$as$u20$core..ops..deref..DerefMut$GT$9deref_mut17h7fbd4bc7b8273f3cE>
    80003082:	e1aa                	sd	a0,192(sp)
    80003084:	a009                	j	80003086 <_ZN6kernel2fs3bio6Bcache5binit17heeb55dbf2032387dE+0xe2>
    80003086:	756a                	ld	a0,184(sp)
    80003088:	658e                	ld	a1,192(sp)
    8000308a:	e588                	sd	a0,8(a1)
    8000308c:	1208                	addi	a0,sp,288
        ctrl.inner[len-1].prev = &mut ctrl.inner[len-2];
    8000308e:	0000e097          	auipc	ra,0xe
    80003092:	380080e7          	jalr	896(ra) # 8001140e <_ZN93_$LT$kernel..lock..spinlock..SpinlockGuard$LT$T$GT$$u20$as$u20$core..ops..deref..DerefMut$GT$9deref_mut17h7fbd4bc7b8273f3cE>
    80003096:	f92a                	sd	a0,176(sp)
    80003098:	a009                	j	8000309a <_ZN6kernel2fs3bio6Bcache5binit17heeb55dbf2032387dE+0xf6>
    8000309a:	6552                	ld	a0,272(sp)
    8000309c:	ffe50593          	addi	a1,a0,-2
    800030a0:	f52e                	sd	a1,168(sp)
    800030a2:	22b56663          	bltu	a0,a1,800032ce <.LBB0_65>
    800030a6:	a009                	j	800030a8 <_ZN6kernel2fs3bio6Bcache5binit17heeb55dbf2032387dE+0x104>
    800030a8:	75aa                	ld	a1,168(sp)
    800030aa:	4575                	li	a0,29
    800030ac:	24b56063          	bltu	a0,a1,800032ec <.LBB0_66+0x16>
    800030b0:	a009                	j	800030b2 <_ZN6kernel2fs3bio6Bcache5binit17heeb55dbf2032387dE+0x10e>
    800030b2:	754a                	ld	a0,176(sp)
    800030b4:	75aa                	ld	a1,168(sp)
    800030b6:	02800613          	li	a2,40
    800030ba:	02c585b3          	mul	a1,a1,a2
    800030be:	952e                	add	a0,a0,a1
    800030c0:	ed2a                	sd	a0,152(sp)
    800030c2:	1208                	addi	a0,sp,288
    800030c4:	0000e097          	auipc	ra,0xe
    800030c8:	34a080e7          	jalr	842(ra) # 8001140e <_ZN93_$LT$kernel..lock..spinlock..SpinlockGuard$LT$T$GT$$u20$as$u20$core..ops..deref..DerefMut$GT$9deref_mut17h7fbd4bc7b8273f3cE>
    800030cc:	f12a                	sd	a0,160(sp)
    800030ce:	a009                	j	800030d0 <_ZN6kernel2fs3bio6Bcache5binit17heeb55dbf2032387dE+0x12c>
    800030d0:	6552                	ld	a0,272(sp)
    800030d2:	fff50593          	addi	a1,a0,-1
    800030d6:	e92e                	sd	a1,144(sp)
    800030d8:	22b56563          	bltu	a0,a1,80003302 <.LBB0_68>
    800030dc:	a009                	j	800030de <_ZN6kernel2fs3bio6Bcache5binit17heeb55dbf2032387dE+0x13a>
    800030de:	65ca                	ld	a1,144(sp)
    800030e0:	4575                	li	a0,29
    800030e2:	22b56f63          	bltu	a0,a1,80003320 <.LBB0_69+0x16>
    800030e6:	a009                	j	800030e8 <_ZN6kernel2fs3bio6Bcache5binit17heeb55dbf2032387dE+0x144>
    800030e8:	656a                	ld	a0,152(sp)
    800030ea:	758a                	ld	a1,160(sp)
    800030ec:	664a                	ld	a2,144(sp)
    800030ee:	02800693          	li	a3,40
    800030f2:	02d60633          	mul	a2,a2,a3
    800030f6:	95b2                	add	a1,a1,a2
    800030f8:	e188                	sd	a0,0(a1)
        ctrl.inner[len-1].next = ptr::null_mut();
    800030fa:	a009                	j	800030fc <_ZN6kernel2fs3bio6Bcache5binit17heeb55dbf2032387dE+0x158>
    800030fc:	1208                	addi	a0,sp,288
    800030fe:	0000e097          	auipc	ra,0xe
    80003102:	310080e7          	jalr	784(ra) # 8001140e <_ZN93_$LT$kernel..lock..spinlock..SpinlockGuard$LT$T$GT$$u20$as$u20$core..ops..deref..DerefMut$GT$9deref_mut17h7fbd4bc7b8273f3cE>
    80003106:	e52a                	sd	a0,136(sp)
    80003108:	a009                	j	8000310a <_ZN6kernel2fs3bio6Bcache5binit17heeb55dbf2032387dE+0x166>
    8000310a:	6552                	ld	a0,272(sp)
    8000310c:	fff50593          	addi	a1,a0,-1
    80003110:	e12e                	sd	a1,128(sp)
    80003112:	22b56263          	bltu	a0,a1,80003336 <.LBB0_71>
    80003116:	a009                	j	80003118 <_ZN6kernel2fs3bio6Bcache5binit17heeb55dbf2032387dE+0x174>
    80003118:	658a                	ld	a1,128(sp)
    8000311a:	4575                	li	a0,29
    8000311c:	22b56c63          	bltu	a0,a1,80003354 <.LBB0_72+0x16>
    80003120:	a009                	j	80003122 <_ZN6kernel2fs3bio6Bcache5binit17heeb55dbf2032387dE+0x17e>
    80003122:	6552                	ld	a0,272(sp)
    80003124:	65aa                	ld	a1,136(sp)
    80003126:	660a                	ld	a2,128(sp)
    80003128:	02800693          	li	a3,40
    8000312c:	02d60633          	mul	a2,a2,a3
    80003130:	962e                	add	a2,a2,a1
    80003132:	4581                	li	a1,0
    80003134:	e60c                	sd	a1,8(a2)
        for i in 1..(len-1) {
    80003136:	fff50593          	addi	a1,a0,-1
    8000313a:	fcae                	sd	a1,120(sp)
    8000313c:	22b56763          	bltu	a0,a1,8000336a <.LBB0_74>
    80003140:	a009                	j	80003142 <_ZN6kernel2fs3bio6Bcache5binit17heeb55dbf2032387dE+0x19e>
    80003142:	75e6                	ld	a1,120(sp)
    80003144:	4505                	li	a0,1
    80003146:	f62a                	sd	a0,296(sp)
    80003148:	fa2e                	sd	a1,304(sp)
    8000314a:	0001c097          	auipc	ra,0x1c
    8000314e:	67e080e7          	jalr	1662(ra) # 8001f7c8 <_ZN63_$LT$I$u20$as$u20$core..iter..traits..collect..IntoIterator$GT$9into_iter17he0a8d93712e5493bE>
    80003152:	f4aa                	sd	a0,104(sp)
    80003154:	f8ae                	sd	a1,112(sp)
    80003156:	a009                	j	80003158 <_ZN6kernel2fs3bio6Bcache5binit17heeb55dbf2032387dE+0x1b4>
    80003158:	7546                	ld	a0,112(sp)
    8000315a:	75a6                	ld	a1,104(sp)
    8000315c:	fe2e                	sd	a1,312(sp)
    8000315e:	e2aa                	sd	a0,320(sp)
    80003160:	a009                	j	80003162 <_ZN6kernel2fs3bio6Bcache5binit17heeb55dbf2032387dE+0x1be>
    80003162:	1a28                	addi	a0,sp,312
    80003164:	0001c097          	auipc	ra,0x1c
    80003168:	5f6080e7          	jalr	1526(ra) # 8001f75a <_ZN4core4iter5range101_$LT$impl$u20$core..iter..traits..iterator..Iterator$u20$for$u20$core..ops..range..Range$LT$A$GT$$GT$4next17h401d971ddbd8474fE>
    8000316c:	e6aa                	sd	a0,328(sp)
    8000316e:	eaae                	sd	a1,336(sp)
    80003170:	a009                	j	80003172 <_ZN6kernel2fs3bio6Bcache5binit17heeb55dbf2032387dE+0x1ce>
    80003172:	6536                	ld	a0,328(sp)
    80003174:	4581                	li	a1,0
    80003176:	00b50463          	beq	a0,a1,8000317e <_ZN6kernel2fs3bio6Bcache5binit17heeb55dbf2032387dE+0x1da>
    8000317a:	a009                	j	8000317c <_ZN6kernel2fs3bio6Bcache5binit17heeb55dbf2032387dE+0x1d8>
    8000317c:	a809                	j	8000318e <_ZN6kernel2fs3bio6Bcache5binit17heeb55dbf2032387dE+0x1ea>
    8000317e:	1208                	addi	a0,sp,288
            ctrl.inner[i].prev = &mut ctrl.inner[i-1];
            ctrl.inner[i].next = &mut ctrl.inner[i+1];
        }
        
        // init index
        ctrl.inner.iter_mut()
    80003180:	0000e097          	auipc	ra,0xe
    80003184:	28e080e7          	jalr	654(ra) # 8001140e <_ZN93_$LT$kernel..lock..spinlock..SpinlockGuard$LT$T$GT$$u20$as$u20$core..ops..deref..DerefMut$GT$9deref_mut17h7fbd4bc7b8273f3cE>
    80003188:	f0aa                	sd	a0,96(sp)
    8000318a:	a8c1                	j	8000325a <_ZN6kernel2fs3bio6Bcache5binit17heeb55dbf2032387dE+0x2b6>
        for i in 1..(len-1) {
    8000318c:	0000                	unimp
    8000318e:	6556                	ld	a0,336(sp)
    80003190:	e8aa                	sd	a0,80(sp)
    80003192:	e32a                	sd	a0,384(sp)
    80003194:	e72a                	sd	a0,392(sp)
    80003196:	eb2a                	sd	a0,400(sp)
    80003198:	1208                	addi	a0,sp,288
            ctrl.inner[i].prev = &mut ctrl.inner[i-1];
    8000319a:	0000e097          	auipc	ra,0xe
    8000319e:	274080e7          	jalr	628(ra) # 8001140e <_ZN93_$LT$kernel..lock..spinlock..SpinlockGuard$LT$T$GT$$u20$as$u20$core..ops..deref..DerefMut$GT$9deref_mut17h7fbd4bc7b8273f3cE>
    800031a2:	ecaa                	sd	a0,88(sp)
    800031a4:	a009                	j	800031a6 <_ZN6kernel2fs3bio6Bcache5binit17heeb55dbf2032387dE+0x202>
    800031a6:	6546                	ld	a0,80(sp)
    800031a8:	fff50593          	addi	a1,a0,-1
    800031ac:	e4ae                	sd	a1,72(sp)
    800031ae:	1cb56d63          	bltu	a0,a1,80003388 <.LBB0_76>
    800031b2:	a009                	j	800031b4 <_ZN6kernel2fs3bio6Bcache5binit17heeb55dbf2032387dE+0x210>
    800031b4:	65a6                	ld	a1,72(sp)
    800031b6:	4575                	li	a0,29
    800031b8:	1eb56763          	bltu	a0,a1,800033a6 <.LBB0_77+0x16>
    800031bc:	a009                	j	800031be <_ZN6kernel2fs3bio6Bcache5binit17heeb55dbf2032387dE+0x21a>
    800031be:	6566                	ld	a0,88(sp)
    800031c0:	65a6                	ld	a1,72(sp)
    800031c2:	02800613          	li	a2,40
    800031c6:	02c585b3          	mul	a1,a1,a2
    800031ca:	952e                	add	a0,a0,a1
    800031cc:	fc2a                	sd	a0,56(sp)
    800031ce:	1208                	addi	a0,sp,288
    800031d0:	0000e097          	auipc	ra,0xe
    800031d4:	23e080e7          	jalr	574(ra) # 8001140e <_ZN93_$LT$kernel..lock..spinlock..SpinlockGuard$LT$T$GT$$u20$as$u20$core..ops..deref..DerefMut$GT$9deref_mut17h7fbd4bc7b8273f3cE>
    800031d8:	e0aa                	sd	a0,64(sp)
    800031da:	a009                	j	800031dc <_ZN6kernel2fs3bio6Bcache5binit17heeb55dbf2032387dE+0x238>
    800031dc:	65c6                	ld	a1,80(sp)
    800031de:	4575                	li	a0,29
    800031e0:	1cb56e63          	bltu	a0,a1,800033bc <.LBB0_78+0x14>
    800031e4:	a009                	j	800031e6 <_ZN6kernel2fs3bio6Bcache5binit17heeb55dbf2032387dE+0x242>
    800031e6:	7562                	ld	a0,56(sp)
    800031e8:	6586                	ld	a1,64(sp)
    800031ea:	6646                	ld	a2,80(sp)
    800031ec:	02800693          	li	a3,40
    800031f0:	02d60633          	mul	a2,a2,a3
    800031f4:	95b2                	add	a1,a1,a2
    800031f6:	e188                	sd	a0,0(a1)
    800031f8:	1208                	addi	a0,sp,288
            ctrl.inner[i].next = &mut ctrl.inner[i+1];
    800031fa:	0000e097          	auipc	ra,0xe
    800031fe:	214080e7          	jalr	532(ra) # 8001140e <_ZN93_$LT$kernel..lock..spinlock..SpinlockGuard$LT$T$GT$$u20$as$u20$core..ops..deref..DerefMut$GT$9deref_mut17h7fbd4bc7b8273f3cE>
    80003202:	f82a                	sd	a0,48(sp)
    80003204:	a009                	j	80003206 <_ZN6kernel2fs3bio6Bcache5binit17heeb55dbf2032387dE+0x262>
    80003206:	65c6                	ld	a1,80(sp)
    80003208:	00158513          	addi	a0,a1,1
    8000320c:	f42a                	sd	a0,40(sp)
    8000320e:	1cb56263          	bltu	a0,a1,800033d2 <.LBB0_80>
    80003212:	a009                	j	80003214 <_ZN6kernel2fs3bio6Bcache5binit17heeb55dbf2032387dE+0x270>
    80003214:	75a2                	ld	a1,40(sp)
    80003216:	4575                	li	a0,29
    80003218:	1cb56b63          	bltu	a0,a1,800033ee <.LBB0_81+0x14>
    8000321c:	a009                	j	8000321e <_ZN6kernel2fs3bio6Bcache5binit17heeb55dbf2032387dE+0x27a>
    8000321e:	7542                	ld	a0,48(sp)
    80003220:	75a2                	ld	a1,40(sp)
    80003222:	02800613          	li	a2,40
    80003226:	02c585b3          	mul	a1,a1,a2
    8000322a:	952e                	add	a0,a0,a1
    8000322c:	ec2a                	sd	a0,24(sp)
    8000322e:	1208                	addi	a0,sp,288
    80003230:	0000e097          	auipc	ra,0xe
    80003234:	1de080e7          	jalr	478(ra) # 8001140e <_ZN93_$LT$kernel..lock..spinlock..SpinlockGuard$LT$T$GT$$u20$as$u20$core..ops..deref..DerefMut$GT$9deref_mut17h7fbd4bc7b8273f3cE>
    80003238:	f02a                	sd	a0,32(sp)
    8000323a:	a009                	j	8000323c <_ZN6kernel2fs3bio6Bcache5binit17heeb55dbf2032387dE+0x298>
    8000323c:	65c6                	ld	a1,80(sp)
    8000323e:	4575                	li	a0,29
    80003240:	1cb56263          	bltu	a0,a1,80003404 <.LBB0_82+0x14>
    80003244:	a009                	j	80003246 <_ZN6kernel2fs3bio6Bcache5binit17heeb55dbf2032387dE+0x2a2>
    80003246:	6562                	ld	a0,24(sp)
    80003248:	7582                	ld	a1,32(sp)
    8000324a:	6646                	ld	a2,80(sp)
    8000324c:	02800693          	li	a3,40
    80003250:	02d60633          	mul	a2,a2,a3
    80003254:	95b2                	add	a1,a1,a2
    80003256:	e588                	sd	a0,8(a1)
        for i in 1..(len-1) {
    80003258:	b729                	j	80003162 <_ZN6kernel2fs3bio6Bcache5binit17heeb55dbf2032387dE+0x1be>
        ctrl.inner.iter_mut()
    8000325a:	7506                	ld	a0,96(sp)
    8000325c:	45f9                	li	a1,30
    8000325e:	00002097          	auipc	ra,0x2
    80003262:	416080e7          	jalr	1046(ra) # 80005674 <_ZN4core5slice29_$LT$impl$u20$$u5b$T$u5d$$GT$8iter_mut17h56877d4d8de3d254E>
    80003266:	e42a                	sd	a0,8(sp)
    80003268:	e82e                	sd	a1,16(sp)
    8000326a:	a009                	j	8000326c <_ZN6kernel2fs3bio6Bcache5binit17heeb55dbf2032387dE+0x2c8>
    8000326c:	6642                	ld	a2,16(sp)
    8000326e:	65a2                	ld	a1,8(sp)
    80003270:	0aa8                	addi	a0,sp,344
    80003272:	00008097          	auipc	ra,0x8
    80003276:	92c080e7          	jalr	-1748(ra) # 8000ab9e <_ZN4core4iter6traits8iterator8Iterator9enumerate17h42a569d91d49dc41E>
    8000327a:	a009                	j	8000327c <_ZN6kernel2fs3bio6Bcache5binit17heeb55dbf2032387dE+0x2d8>
    8000327c:	0aa8                	addi	a0,sp,344
    8000327e:	0000f097          	auipc	ra,0xf
    80003282:	e7a080e7          	jalr	-390(ra) # 800120f8 <_ZN4core4iter6traits8iterator8Iterator8for_each17hc49183b8c223967eE>
    80003286:	a009                	j	80003288 <_ZN6kernel2fs3bio6Bcache5binit17heeb55dbf2032387dE+0x2e4>
    80003288:	1208                	addi	a0,sp,288
            .enumerate()
            .for_each(|(i, b)| b.index = i);
    }
    8000328a:	00004097          	auipc	ra,0x4
    8000328e:	dbe080e7          	jalr	-578(ra) # 80007048 <_ZN4core3ptr89drop_in_place$LT$kernel..lock..spinlock..SpinlockGuard$LT$kernel..fs..bio..BufLru$GT$$GT$17h9c86fb58887d325bE>
    80003292:	a009                	j	80003294 <_ZN6kernel2fs3bio6Bcache5binit17heeb55dbf2032387dE+0x2f0>
    80003294:	60fa                	ld	ra,408(sp)
    80003296:	611d                	addi	sp,sp,416
    80003298:	8082                	ret

000000008000329a <.LBB0_62>:
        ctrl.tail = &mut ctrl.inner[len-1];
    8000329a:	00022517          	auipc	a0,0x22
    8000329e:	7d650513          	addi	a0,a0,2006 # 80025a70 <str.0>

00000000800032a2 <.LBB0_63>:
    800032a2:	00022617          	auipc	a2,0x22
    800032a6:	7ae60613          	addi	a2,a2,1966 # 80025a50 <.L__unnamed_1>
    800032aa:	02100593          	li	a1,33
    800032ae:	0001f097          	auipc	ra,0x1f
    800032b2:	e4e080e7          	jalr	-434(ra) # 800220fc <_ZN4core9panicking5panic17h153a4ce3c60ede6bE>
    800032b6:	0000                	unimp
    800032b8:	752e                	ld	a0,232(sp)

00000000800032ba <.LBB0_64>:
    800032ba:	00022617          	auipc	a2,0x22
    800032be:	7de60613          	addi	a2,a2,2014 # 80025a98 <.L__unnamed_2>
    800032c2:	45f9                	li	a1,30
    800032c4:	0001f097          	auipc	ra,0x1f
    800032c8:	e64080e7          	jalr	-412(ra) # 80022128 <_ZN4core9panicking18panic_bounds_check17h8e071db613335003E>
	...

00000000800032ce <.LBB0_65>:
        ctrl.inner[len-1].prev = &mut ctrl.inner[len-2];
    800032ce:	00022517          	auipc	a0,0x22
    800032d2:	7a250513          	addi	a0,a0,1954 # 80025a70 <str.0>

00000000800032d6 <.LBB0_66>:
    800032d6:	00022617          	auipc	a2,0x22
    800032da:	7da60613          	addi	a2,a2,2010 # 80025ab0 <.L__unnamed_3>
    800032de:	02100593          	li	a1,33
    800032e2:	0001f097          	auipc	ra,0x1f
    800032e6:	e1a080e7          	jalr	-486(ra) # 800220fc <_ZN4core9panicking5panic17h153a4ce3c60ede6bE>
    800032ea:	0000                	unimp
    800032ec:	752a                	ld	a0,168(sp)

00000000800032ee <.LBB0_67>:
    800032ee:	00022617          	auipc	a2,0x22
    800032f2:	7da60613          	addi	a2,a2,2010 # 80025ac8 <.L__unnamed_4>
    800032f6:	45f9                	li	a1,30
    800032f8:	0001f097          	auipc	ra,0x1f
    800032fc:	e30080e7          	jalr	-464(ra) # 80022128 <_ZN4core9panicking18panic_bounds_check17h8e071db613335003E>
	...

0000000080003302 <.LBB0_68>:
    80003302:	00022517          	auipc	a0,0x22
    80003306:	76e50513          	addi	a0,a0,1902 # 80025a70 <str.0>

000000008000330a <.LBB0_69>:
    8000330a:	00022617          	auipc	a2,0x22
    8000330e:	7d660613          	addi	a2,a2,2006 # 80025ae0 <.L__unnamed_5>
    80003312:	02100593          	li	a1,33
    80003316:	0001f097          	auipc	ra,0x1f
    8000331a:	de6080e7          	jalr	-538(ra) # 800220fc <_ZN4core9panicking5panic17h153a4ce3c60ede6bE>
    8000331e:	0000                	unimp
    80003320:	654a                	ld	a0,144(sp)

0000000080003322 <.LBB0_70>:
    80003322:	00022617          	auipc	a2,0x22
    80003326:	7d660613          	addi	a2,a2,2006 # 80025af8 <.L__unnamed_6>
    8000332a:	45f9                	li	a1,30
    8000332c:	0001f097          	auipc	ra,0x1f
    80003330:	dfc080e7          	jalr	-516(ra) # 80022128 <_ZN4core9panicking18panic_bounds_check17h8e071db613335003E>
	...

0000000080003336 <.LBB0_71>:
        ctrl.inner[len-1].next = ptr::null_mut();
    80003336:	00022517          	auipc	a0,0x22
    8000333a:	73a50513          	addi	a0,a0,1850 # 80025a70 <str.0>

000000008000333e <.LBB0_72>:
    8000333e:	00022617          	auipc	a2,0x22
    80003342:	7d260613          	addi	a2,a2,2002 # 80025b10 <.L__unnamed_7>
    80003346:	02100593          	li	a1,33
    8000334a:	0001f097          	auipc	ra,0x1f
    8000334e:	db2080e7          	jalr	-590(ra) # 800220fc <_ZN4core9panicking5panic17h153a4ce3c60ede6bE>
    80003352:	0000                	unimp
    80003354:	650a                	ld	a0,128(sp)

0000000080003356 <.LBB0_73>:
    80003356:	00022617          	auipc	a2,0x22
    8000335a:	7d260613          	addi	a2,a2,2002 # 80025b28 <.L__unnamed_8>
    8000335e:	45f9                	li	a1,30
    80003360:	0001f097          	auipc	ra,0x1f
    80003364:	dc8080e7          	jalr	-568(ra) # 80022128 <_ZN4core9panicking18panic_bounds_check17h8e071db613335003E>
	...

000000008000336a <.LBB0_74>:
        for i in 1..(len-1) {
    8000336a:	00022517          	auipc	a0,0x22
    8000336e:	70650513          	addi	a0,a0,1798 # 80025a70 <str.0>

0000000080003372 <.LBB0_75>:
    80003372:	00022617          	auipc	a2,0x22
    80003376:	7ce60613          	addi	a2,a2,1998 # 80025b40 <.L__unnamed_9>
    8000337a:	02100593          	li	a1,33
    8000337e:	0001f097          	auipc	ra,0x1f
    80003382:	d7e080e7          	jalr	-642(ra) # 800220fc <_ZN4core9panicking5panic17h153a4ce3c60ede6bE>
	...

0000000080003388 <.LBB0_76>:
            ctrl.inner[i].prev = &mut ctrl.inner[i-1];
    80003388:	00022517          	auipc	a0,0x22
    8000338c:	6e850513          	addi	a0,a0,1768 # 80025a70 <str.0>

0000000080003390 <.LBB0_77>:
    80003390:	00022617          	auipc	a2,0x22
    80003394:	7c860613          	addi	a2,a2,1992 # 80025b58 <.L__unnamed_10>
    80003398:	02100593          	li	a1,33
    8000339c:	0001f097          	auipc	ra,0x1f
    800033a0:	d60080e7          	jalr	-672(ra) # 800220fc <_ZN4core9panicking5panic17h153a4ce3c60ede6bE>
    800033a4:	0000                	unimp
    800033a6:	6526                	ld	a0,72(sp)

00000000800033a8 <.LBB0_78>:
    800033a8:	00022617          	auipc	a2,0x22
    800033ac:	7c860613          	addi	a2,a2,1992 # 80025b70 <.L__unnamed_11>
    800033b0:	45f9                	li	a1,30
    800033b2:	0001f097          	auipc	ra,0x1f
    800033b6:	d76080e7          	jalr	-650(ra) # 80022128 <_ZN4core9panicking18panic_bounds_check17h8e071db613335003E>
    800033ba:	0000                	unimp
    800033bc:	6546                	ld	a0,80(sp)

00000000800033be <.LBB0_79>:
    800033be:	00022617          	auipc	a2,0x22
    800033c2:	7ca60613          	addi	a2,a2,1994 # 80025b88 <.L__unnamed_12>
    800033c6:	45f9                	li	a1,30
    800033c8:	0001f097          	auipc	ra,0x1f
    800033cc:	d60080e7          	jalr	-672(ra) # 80022128 <_ZN4core9panicking18panic_bounds_check17h8e071db613335003E>
	...

00000000800033d2 <.LBB0_80>:
            ctrl.inner[i].next = &mut ctrl.inner[i+1];
    800033d2:	00022517          	auipc	a0,0x22
    800033d6:	7ee50513          	addi	a0,a0,2030 # 80025bc0 <str.1>

00000000800033da <.LBB0_81>:
    800033da:	00022617          	auipc	a2,0x22
    800033de:	7c660613          	addi	a2,a2,1990 # 80025ba0 <.L__unnamed_13>
    800033e2:	45f1                	li	a1,28
    800033e4:	0001f097          	auipc	ra,0x1f
    800033e8:	d18080e7          	jalr	-744(ra) # 800220fc <_ZN4core9panicking5panic17h153a4ce3c60ede6bE>
    800033ec:	0000                	unimp
    800033ee:	7522                	ld	a0,40(sp)

00000000800033f0 <.LBB0_82>:
    800033f0:	00022617          	auipc	a2,0x22
    800033f4:	7f060613          	addi	a2,a2,2032 # 80025be0 <.L__unnamed_14>
    800033f8:	45f9                	li	a1,30
    800033fa:	0001f097          	auipc	ra,0x1f
    800033fe:	d2e080e7          	jalr	-722(ra) # 80022128 <_ZN4core9panicking18panic_bounds_check17h8e071db613335003E>
    80003402:	0000                	unimp
    80003404:	6546                	ld	a0,80(sp)

0000000080003406 <.LBB0_83>:
    80003406:	00022617          	auipc	a2,0x22
    8000340a:	7f260613          	addi	a2,a2,2034 # 80025bf8 <.L__unnamed_15>
    8000340e:	45f9                	li	a1,30
    80003410:	0001f097          	auipc	ra,0x1f
    80003414:	d18080e7          	jalr	-744(ra) # 80022128 <_ZN4core9panicking18panic_bounds_check17h8e071db613335003E>
	...

Disassembly of section .text._ZN6kernel2fs3bio6Bcache4bget17h5f7e8a4c3a341a1bE:

000000008000341a <_ZN6kernel2fs3bio6Bcache4bget17h5f7e8a4c3a341a1bE>:

    fn bget(&self, dev: u32, blockno: u32) -> Buf<'_> {
    8000341a:	716d                	addi	sp,sp,-272
    8000341c:	e606                	sd	ra,264(sp)
    8000341e:	ecae                	sd	a1,88(sp)
    80003420:	85aa                	mv	a1,a0
    80003422:	6566                	ld	a0,88(sp)
    80003424:	f0ae                	sd	a1,96(sp)
    80003426:	85b6                	mv	a1,a3
    80003428:	f4ae                	sd	a1,104(sp)
    8000342a:	85b2                	mv	a1,a2
    8000342c:	f8ae                	sd	a1,112(sp)
    8000342e:	edaa                	sd	a0,216(sp)
    80003430:	d1b2                	sw	a2,224(sp)
    80003432:	d3b6                	sw	a3,228(sp)
        let mut ctrl = self.ctrl.acquire();
    80003434:	0000d097          	auipc	ra,0xd
    80003438:	f60080e7          	jalr	-160(ra) # 80010394 <_ZN6kernel4lock8spinlock17Spinlock$LT$T$GT$7acquire17h4c9081acf22588feE>
    8000343c:	fcaa                	sd	a0,120(sp)
    8000343e:	a009                	j	80003440 <_ZN6kernel2fs3bio6Bcache4bget17h5f7e8a4c3a341a1bE+0x26>
    80003440:	18a8                	addi	a0,sp,120

        // find cached block
        match ctrl.find_cached(dev, blockno) {
    80003442:	0000e097          	auipc	ra,0xe
    80003446:	fcc080e7          	jalr	-52(ra) # 8001140e <_ZN93_$LT$kernel..lock..spinlock..SpinlockGuard$LT$T$GT$$u20$as$u20$core..ops..deref..DerefMut$GT$9deref_mut17h7fbd4bc7b8273f3cE>
    8000344a:	e8aa                	sd	a0,80(sp)
    8000344c:	a009                	j	8000344e <_ZN6kernel2fs3bio6Bcache4bget17h5f7e8a4c3a341a1bE+0x34>
    8000344e:	76a6                	ld	a3,104(sp)
    80003450:	7646                	ld	a2,112(sp)
    80003452:	65c6                	ld	a1,80(sp)
    80003454:	0108                	addi	a0,sp,128
    80003456:	00000097          	auipc	ra,0x0
    8000345a:	41e080e7          	jalr	1054(ra) # 80003874 <_ZN6kernel2fs3bio6BufLru11find_cached17h75fa078c96ee4834E>
    8000345e:	a009                	j	80003460 <_ZN6kernel2fs3bio6Bcache4bget17h5f7e8a4c3a341a1bE+0x46>
            Some((index, rc_ptr)) => {
    80003460:	650a                	ld	a0,128(sp)
    80003462:	4581                	li	a1,0
    80003464:	00b50463          	beq	a0,a1,8000346c <_ZN6kernel2fs3bio6Bcache4bget17h5f7e8a4c3a341a1bE+0x52>
    80003468:	a009                	j	8000346a <_ZN6kernel2fs3bio6Bcache4bget17h5f7e8a4c3a341a1bE+0x50>
    8000346a:	a809                	j	8000347c <_ZN6kernel2fs3bio6Bcache4bget17h5f7e8a4c3a341a1bE+0x62>
    8000346c:	18a8                	addi	a0,sp,120
                }
            }
            None => {
                // not cached
                // recycle the least recently used (LRU) unused buffer
                match ctrl.recycle(dev, blockno) {
    8000346e:	0000e097          	auipc	ra,0xe
    80003472:	fa0080e7          	jalr	-96(ra) # 8001140e <_ZN93_$LT$kernel..lock..spinlock..SpinlockGuard$LT$T$GT$$u20$as$u20$core..ops..deref..DerefMut$GT$9deref_mut17h7fbd4bc7b8273f3cE>
    80003476:	e4aa                	sd	a0,72(sp)
    80003478:	a0ad                	j	800034e2 <_ZN6kernel2fs3bio6Bcache4bget17h5f7e8a4c3a341a1bE+0xc8>
        match ctrl.find_cached(dev, blockno) {
    8000347a:	0000                	unimp
            Some((index, rc_ptr)) => {
    8000347c:	652a                	ld	a0,136(sp)
    8000347e:	fc2a                	sd	a0,56(sp)
    80003480:	f5aa                	sd	a0,232(sp)
    80003482:	654a                	ld	a0,144(sp)
    80003484:	e0aa                	sd	a0,64(sp)
    80003486:	f9aa                	sd	a0,240(sp)
                drop(ctrl);
    80003488:	7566                	ld	a0,120(sp)
    8000348a:	0001a097          	auipc	ra,0x1a
    8000348e:	a6e080e7          	jalr	-1426(ra) # 8001cef8 <_ZN4core3mem4drop17h82526bd482ef36a5E>
    80003492:	a009                	j	80003494 <_ZN6kernel2fs3bio6Bcache4bget17h5f7e8a4c3a341a1bE+0x7a>
    80003494:	75e2                	ld	a1,56(sp)
    80003496:	4575                	li	a0,29
                    data: Some(self.bufs[index].data.lock())
    80003498:	12b56163          	bltu	a0,a1,800035ba <.LBB1_27+0xb2>
    8000349c:	a009                	j	8000349e <_ZN6kernel2fs3bio6Bcache4bget17h5f7e8a4c3a341a1bE+0x84>
    8000349e:	6566                	ld	a0,88(sp)
    800034a0:	75e2                	ld	a1,56(sp)
    800034a2:	44000613          	li	a2,1088
    800034a6:	02c585b3          	mul	a1,a1,a2
    800034aa:	952e                	add	a0,a0,a1
    800034ac:	4e050513          	addi	a0,a0,1248
    800034b0:	0001a097          	auipc	ra,0x1a
    800034b4:	e8c080e7          	jalr	-372(ra) # 8001d33c <_ZN6kernel4lock9sleeplock18SleepLock$LT$T$GT$4lock17h852a891f9af492ecE>
    800034b8:	f42a                	sd	a0,40(sp)
    800034ba:	f82e                	sd	a1,48(sp)
    800034bc:	a009                	j	800034be <_ZN6kernel2fs3bio6Bcache4bget17h5f7e8a4c3a341a1bE+0xa4>
    800034be:	7586                	ld	a1,96(sp)
    800034c0:	6506                	ld	a0,64(sp)
    800034c2:	7626                	ld	a2,104(sp)
    800034c4:	76c6                	ld	a3,112(sp)
    800034c6:	7762                	ld	a4,56(sp)
    800034c8:	77c2                	ld	a5,48(sp)
    800034ca:	7822                	ld	a6,40(sp)
    800034cc:	ed42                	sd	a6,152(sp)
    800034ce:	f13e                	sd	a5,160(sp)
                Buf {
    800034d0:	e198                	sd	a4,0(a1)
    800034d2:	d194                	sw	a3,32(a1)
    800034d4:	d1d0                	sw	a2,36(a1)
    800034d6:	e588                	sd	a0,8(a1)
    800034d8:	666a                	ld	a2,152(sp)
    800034da:	750a                	ld	a0,160(sp)
    800034dc:	e990                	sd	a2,16(a1)
    800034de:	ed88                	sd	a0,24(a1)
                    }
                    None => panic!("no usable buffer")
                }
            }
        }
    }
    800034e0:	a8d1                	j	800035b4 <.LBB1_27+0xac>
                match ctrl.recycle(dev, blockno) {
    800034e2:	76a6                	ld	a3,104(sp)
    800034e4:	7646                	ld	a2,112(sp)
    800034e6:	65a6                	ld	a1,72(sp)
    800034e8:	1128                	addi	a0,sp,168
    800034ea:	00000097          	auipc	ra,0x0
    800034ee:	47c080e7          	jalr	1148(ra) # 80003966 <_ZN6kernel2fs3bio6BufLru7recycle17h2cc2179c79ac2f75E>
    800034f2:	a009                	j	800034f4 <_ZN6kernel2fs3bio6Bcache4bget17h5f7e8a4c3a341a1bE+0xda>
                    Some((index, rc_ptr)) => {
    800034f4:	752a                	ld	a0,168(sp)
    800034f6:	4581                	li	a1,0
    800034f8:	00b50463          	beq	a0,a1,80003500 <.LBB1_26>
    800034fc:	a009                	j	800034fe <_ZN6kernel2fs3bio6Bcache4bget17h5f7e8a4c3a341a1bE+0xe4>
    800034fe:	a005                	j	8000351e <.LBB1_27+0x16>

0000000080003500 <.LBB1_26>:
                    None => panic!("no usable buffer")
    80003500:	00022517          	auipc	a0,0x22
    80003504:	17050513          	addi	a0,a0,368 # 80025670 <.L__unnamed_35+0xa8>

0000000080003508 <.LBB1_27>:
    80003508:	00022617          	auipc	a2,0x22
    8000350c:	75060613          	addi	a2,a2,1872 # 80025c58 <.L__unnamed_17>
    80003510:	45c1                	li	a1,16
    80003512:	0001f097          	auipc	ra,0x1f
    80003516:	bea080e7          	jalr	-1046(ra) # 800220fc <_ZN4core9panicking5panic17h153a4ce3c60ede6bE>
    8000351a:	0000                	unimp
                match ctrl.recycle(dev, blockno) {
    8000351c:	0000                	unimp
                    Some((index, rc_ptr)) => {
    8000351e:	75ca                	ld	a1,176(sp)
    80003520:	ec2e                	sd	a1,24(sp)
    80003522:	fdae                	sd	a1,248(sp)
    80003524:	756a                	ld	a0,184(sp)
    80003526:	f02a                	sd	a0,32(sp)
    80003528:	e22a                	sd	a0,256(sp)
    8000352a:	4575                	li	a0,29
                        self.bufs[index].valid.store(false, Ordering::Relaxed);
    8000352c:	0ab56263          	bltu	a0,a1,800035d0 <.LBB1_28+0x14>
    80003530:	a009                	j	80003532 <.LBB1_27+0x2a>
    80003532:	6566                	ld	a0,88(sp)
    80003534:	65e2                	ld	a1,24(sp)
    80003536:	44000613          	li	a2,1088
    8000353a:	02c585b3          	mul	a1,a1,a2
    8000353e:	952e                	add	a0,a0,a1
    80003540:	48c50513          	addi	a0,a0,1164
    80003544:	48c50513          	addi	a0,a0,1164
    80003548:	4601                	li	a2,0
    8000354a:	0cc103a3          	sb	a2,199(sp)
    8000354e:	85b2                	mv	a1,a2
    80003550:	00001097          	auipc	ra,0x1
    80003554:	19c080e7          	jalr	412(ra) # 800046ec <_ZN4core4sync6atomic10AtomicBool5store17h325e21ca90edd7e7E>
    80003558:	a009                	j	8000355a <.LBB1_27+0x52>
                        drop(ctrl);
    8000355a:	7566                	ld	a0,120(sp)
    8000355c:	0001a097          	auipc	ra,0x1a
    80003560:	99c080e7          	jalr	-1636(ra) # 8001cef8 <_ZN4core3mem4drop17h82526bd482ef36a5E>
    80003564:	a009                	j	80003566 <.LBB1_27+0x5e>
    80003566:	65e2                	ld	a1,24(sp)
    80003568:	4575                	li	a0,29
                            data: Some(self.bufs[index].data.lock()),
    8000356a:	06b56e63          	bltu	a0,a1,800035e6 <.LBB1_29+0x14>
    8000356e:	a009                	j	80003570 <.LBB1_27+0x68>
    80003570:	6566                	ld	a0,88(sp)
    80003572:	65e2                	ld	a1,24(sp)
    80003574:	44000613          	li	a2,1088
    80003578:	02c585b3          	mul	a1,a1,a2
    8000357c:	952e                	add	a0,a0,a1
    8000357e:	4e050513          	addi	a0,a0,1248
    80003582:	0001a097          	auipc	ra,0x1a
    80003586:	dba080e7          	jalr	-582(ra) # 8001d33c <_ZN6kernel4lock9sleeplock18SleepLock$LT$T$GT$4lock17h852a891f9af492ecE>
    8000358a:	e42a                	sd	a0,8(sp)
    8000358c:	e82e                	sd	a1,16(sp)
    8000358e:	a009                	j	80003590 <.LBB1_27+0x88>
    80003590:	7586                	ld	a1,96(sp)
    80003592:	7502                	ld	a0,32(sp)
    80003594:	7626                	ld	a2,104(sp)
    80003596:	76c6                	ld	a3,112(sp)
    80003598:	6762                	ld	a4,24(sp)
    8000359a:	67c2                	ld	a5,16(sp)
    8000359c:	6822                	ld	a6,8(sp)
    8000359e:	e5c2                	sd	a6,200(sp)
    800035a0:	e9be                	sd	a5,208(sp)
                        return Buf {
    800035a2:	e198                	sd	a4,0(a1)
    800035a4:	d194                	sw	a3,32(a1)
    800035a6:	d1d0                	sw	a2,36(a1)
    800035a8:	e588                	sd	a0,8(a1)
    800035aa:	662e                	ld	a2,200(sp)
    800035ac:	654e                	ld	a0,208(sp)
    800035ae:	e990                	sd	a2,16(a1)
    800035b0:	ed88                	sd	a0,24(a1)
    }
    800035b2:	a009                	j	800035b4 <.LBB1_27+0xac>
    800035b4:	60b2                	ld	ra,264(sp)
    800035b6:	6151                	addi	sp,sp,272
    800035b8:	8082                	ret
                    data: Some(self.bufs[index].data.lock())
    800035ba:	7562                	ld	a0,56(sp)

00000000800035bc <.LBB1_28>:
    800035bc:	00022617          	auipc	a2,0x22
    800035c0:	65460613          	addi	a2,a2,1620 # 80025c10 <.L__unnamed_18>
    800035c4:	45f9                	li	a1,30
    800035c6:	0001f097          	auipc	ra,0x1f
    800035ca:	b62080e7          	jalr	-1182(ra) # 80022128 <_ZN4core9panicking18panic_bounds_check17h8e071db613335003E>
