
kernel/target/riscv64gc-unknown-none-elf/debug/kernel:     file format elf64-littleriscv


Disassembly of section .text:

0000000080000000 <_entry>:
    80000000:	00036117          	auipc	sp,0x36
    80000004:	e9010113          	addi	sp,sp,-368 # 80035e90 <stack0>
    80000008:	6511                	lui	a0,0x4
    8000000a:	f14025f3          	csrr	a1,mhartid
    8000000e:	0585                	addi	a1,a1,1
    80000010:	02b50533          	mul	a0,a0,a1
    80000014:	912a                	add	sp,sp,a0
    80000016:	0000c097          	auipc	ra,0xc
    8000001a:	900080e7          	jalr	-1792(ra) # 8000b916 <start>
    8000001e:	0001                	nop

0000000080000020 <kernelvec>:
    80000020:	7111                	addi	sp,sp,-256
    80000022:	e006                	sd	ra,0(sp)
    80000024:	e40a                	sd	sp,8(sp)
    80000026:	e80e                	sd	gp,16(sp)
    80000028:	ec12                	sd	tp,24(sp)
    8000002a:	f016                	sd	t0,32(sp)
    8000002c:	f41a                	sd	t1,40(sp)
    8000002e:	f81e                	sd	t2,48(sp)
    80000030:	fc22                	sd	s0,56(sp)
    80000032:	e0a6                	sd	s1,64(sp)
    80000034:	e4aa                	sd	a0,72(sp)
    80000036:	e8ae                	sd	a1,80(sp)
    80000038:	ecb2                	sd	a2,88(sp)
    8000003a:	f0b6                	sd	a3,96(sp)
    8000003c:	f4ba                	sd	a4,104(sp)
    8000003e:	f8be                	sd	a5,112(sp)
    80000040:	fcc2                	sd	a6,120(sp)
    80000042:	e146                	sd	a7,128(sp)
    80000044:	e54a                	sd	s2,136(sp)
    80000046:	e94e                	sd	s3,144(sp)
    80000048:	ed52                	sd	s4,152(sp)
    8000004a:	f156                	sd	s5,160(sp)
    8000004c:	f55a                	sd	s6,168(sp)
    8000004e:	f95e                	sd	s7,176(sp)
    80000050:	fd62                	sd	s8,184(sp)
    80000052:	e1e6                	sd	s9,192(sp)
    80000054:	e5ea                	sd	s10,200(sp)
    80000056:	e9ee                	sd	s11,208(sp)
    80000058:	edf2                	sd	t3,216(sp)
    8000005a:	f1f6                	sd	t4,224(sp)
    8000005c:	f5fa                	sd	t5,232(sp)
    8000005e:	f9fe                	sd	t6,240(sp)
    80000060:	00015097          	auipc	ra,0x15
    80000064:	c64080e7          	jalr	-924(ra) # 80014cc4 <kerneltrap>
    80000068:	6082                	ld	ra,0(sp)
    8000006a:	6122                	ld	sp,8(sp)
    8000006c:	61c2                	ld	gp,16(sp)
    8000006e:	7282                	ld	t0,32(sp)
    80000070:	7322                	ld	t1,40(sp)
    80000072:	73c2                	ld	t2,48(sp)
    80000074:	7462                	ld	s0,56(sp)
    80000076:	6486                	ld	s1,64(sp)
    80000078:	6526                	ld	a0,72(sp)
    8000007a:	65c6                	ld	a1,80(sp)
    8000007c:	6666                	ld	a2,88(sp)
    8000007e:	7686                	ld	a3,96(sp)
    80000080:	7726                	ld	a4,104(sp)
    80000082:	77c6                	ld	a5,112(sp)
    80000084:	7866                	ld	a6,120(sp)
    80000086:	688a                	ld	a7,128(sp)
    80000088:	692a                	ld	s2,136(sp)
    8000008a:	69ca                	ld	s3,144(sp)
    8000008c:	6a6a                	ld	s4,152(sp)
    8000008e:	7a8a                	ld	s5,160(sp)
    80000090:	7b2a                	ld	s6,168(sp)
    80000092:	7bca                	ld	s7,176(sp)
    80000094:	7c6a                	ld	s8,184(sp)
    80000096:	6c8e                	ld	s9,192(sp)
    80000098:	6d2e                	ld	s10,200(sp)
    8000009a:	6dce                	ld	s11,208(sp)
    8000009c:	6e6e                	ld	t3,216(sp)
    8000009e:	7e8e                	ld	t4,224(sp)
    800000a0:	7f2e                	ld	t5,232(sp)
    800000a2:	7fce                	ld	t6,240(sp)
    800000a4:	6111                	addi	sp,sp,256
    800000a6:	10200073          	sret
    800000aa:	00000013          	nop
    800000ae:	0001                	nop

00000000800000b0 <timervec>:
    800000b0:	34051573          	csrrw	a0,mscratch,a0
    800000b4:	e10c                	sd	a1,0(a0)
    800000b6:	e510                	sd	a2,8(a0)
    800000b8:	e914                	sd	a3,16(a0)
    800000ba:	6d0c                	ld	a1,24(a0)
    800000bc:	7110                	ld	a2,32(a0)
    800000be:	6194                	ld	a3,0(a1)
    800000c0:	96b2                	add	a3,a3,a2
    800000c2:	e194                	sd	a3,0(a1)
    800000c4:	4589                	li	a1,2
    800000c6:	14459073          	csrw	sip,a1
    800000ca:	6914                	ld	a3,16(a0)
    800000cc:	6510                	ld	a2,8(a0)
    800000ce:	610c                	ld	a1,0(a0)
    800000d0:	34051573          	csrrw	a0,mscratch,a0
    800000d4:	30200073          	mret
	...

0000000080001000 <trampoline>:
    80001000:	14051573          	csrrw	a0,sscratch,a0
    80001004:	02153423          	sd	ra,40(a0) # 4028 <.Lline_table_start0+0x49d>
    80001008:	02253823          	sd	sp,48(a0)
    8000100c:	02353c23          	sd	gp,56(a0)
    80001010:	04453023          	sd	tp,64(a0)
    80001014:	04553423          	sd	t0,72(a0)
    80001018:	04653823          	sd	t1,80(a0)
    8000101c:	04753c23          	sd	t2,88(a0)
    80001020:	f120                	sd	s0,96(a0)
    80001022:	f524                	sd	s1,104(a0)
    80001024:	fd2c                	sd	a1,120(a0)
    80001026:	e150                	sd	a2,128(a0)
    80001028:	e554                	sd	a3,136(a0)
    8000102a:	e958                	sd	a4,144(a0)
    8000102c:	ed5c                	sd	a5,152(a0)
    8000102e:	0b053023          	sd	a6,160(a0)
    80001032:	0b153423          	sd	a7,168(a0)
    80001036:	0b253823          	sd	s2,176(a0)
    8000103a:	0b353c23          	sd	s3,184(a0)
    8000103e:	0d453023          	sd	s4,192(a0)
    80001042:	0d553423          	sd	s5,200(a0)
    80001046:	0d653823          	sd	s6,208(a0)
    8000104a:	0d753c23          	sd	s7,216(a0)
    8000104e:	0f853023          	sd	s8,224(a0)
    80001052:	0f953423          	sd	s9,232(a0)
    80001056:	0fa53823          	sd	s10,240(a0)
    8000105a:	0fb53c23          	sd	s11,248(a0)
    8000105e:	11c53023          	sd	t3,256(a0)
    80001062:	11d53423          	sd	t4,264(a0)
    80001066:	11e53823          	sd	t5,272(a0)
    8000106a:	11f53c23          	sd	t6,280(a0)
    8000106e:	140022f3          	csrr	t0,sscratch
    80001072:	06553823          	sd	t0,112(a0)
    80001076:	141022f3          	csrr	t0,sepc
    8000107a:	00553c23          	sd	t0,24(a0)
    8000107e:	00853103          	ld	sp,8(a0)
    80001082:	02053203          	ld	tp,32(a0)
    80001086:	01053283          	ld	t0,16(a0)
    8000108a:	00053303          	ld	t1,0(a0)
    8000108e:	18031073          	csrw	satp,t1
    80001092:	12000073          	sfence.vma
    80001096:	8282                	jr	t0
	...

00000000800010a0 <userret>:
    800010a0:	18059073          	csrw	satp,a1
    800010a4:	12000073          	sfence.vma
    800010a8:	07053283          	ld	t0,112(a0)
    800010ac:	14029073          	csrw	sscratch,t0
    800010b0:	02853083          	ld	ra,40(a0)
    800010b4:	03053103          	ld	sp,48(a0)
    800010b8:	03853183          	ld	gp,56(a0)
    800010bc:	04053203          	ld	tp,64(a0)
    800010c0:	04853283          	ld	t0,72(a0)
    800010c4:	05053303          	ld	t1,80(a0)
    800010c8:	05853383          	ld	t2,88(a0)
    800010cc:	7120                	ld	s0,96(a0)
    800010ce:	7524                	ld	s1,104(a0)
    800010d0:	7d2c                	ld	a1,120(a0)
    800010d2:	6150                	ld	a2,128(a0)
    800010d4:	6554                	ld	a3,136(a0)
    800010d6:	6958                	ld	a4,144(a0)
    800010d8:	6d5c                	ld	a5,152(a0)
    800010da:	0a053803          	ld	a6,160(a0)
    800010de:	0a853883          	ld	a7,168(a0)
    800010e2:	0b053903          	ld	s2,176(a0)
    800010e6:	0b853983          	ld	s3,184(a0)
    800010ea:	0c053a03          	ld	s4,192(a0)
    800010ee:	0c853a83          	ld	s5,200(a0)
    800010f2:	0d053b03          	ld	s6,208(a0)
    800010f6:	0d853b83          	ld	s7,216(a0)
    800010fa:	0e053c03          	ld	s8,224(a0)
    800010fe:	0e853c83          	ld	s9,232(a0)
    80001102:	0f053d03          	ld	s10,240(a0)
    80001106:	0f853d83          	ld	s11,248(a0)
    8000110a:	10053e03          	ld	t3,256(a0)
    8000110e:	10853e83          	ld	t4,264(a0)
    80001112:	11053f03          	ld	t5,272(a0)
    80001116:	11853f83          	ld	t6,280(a0)
    8000111a:	14051573          	csrrw	a0,sscratch,a0
    8000111e:	10200073          	sret

0000000080001122 <switch>:
    80001122:	00153023          	sd	ra,0(a0)
    80001126:	00253423          	sd	sp,8(a0)
    8000112a:	e900                	sd	s0,16(a0)
    8000112c:	ed04                	sd	s1,24(a0)
    8000112e:	03253023          	sd	s2,32(a0)
    80001132:	03353423          	sd	s3,40(a0)
    80001136:	03453823          	sd	s4,48(a0)
    8000113a:	03553c23          	sd	s5,56(a0)
    8000113e:	05653023          	sd	s6,64(a0)
    80001142:	05753423          	sd	s7,72(a0)
    80001146:	05853823          	sd	s8,80(a0)
    8000114a:	05953c23          	sd	s9,88(a0)
    8000114e:	07a53023          	sd	s10,96(a0)
    80001152:	07b53423          	sd	s11,104(a0)
    80001156:	0005b083          	ld	ra,0(a1)
    8000115a:	0085b103          	ld	sp,8(a1)
    8000115e:	6980                	ld	s0,16(a1)
    80001160:	6d84                	ld	s1,24(a1)
    80001162:	0205b903          	ld	s2,32(a1)
    80001166:	0285b983          	ld	s3,40(a1)
    8000116a:	0305ba03          	ld	s4,48(a1)
    8000116e:	0385ba83          	ld	s5,56(a1)
    80001172:	0405bb03          	ld	s6,64(a1)
    80001176:	0485bb83          	ld	s7,72(a1)
    8000117a:	0505bc03          	ld	s8,80(a1)
    8000117e:	0585bc83          	ld	s9,88(a1)
    80001182:	0605bd03          	ld	s10,96(a1)
    80001186:	0685bd83          	ld	s11,104(a1)
    8000118a:	8082                	ret

Disassembly of section .text._ZN6kernel2fs3bio6Bcache5binit17h001013a72aa37c14E:

000000008000118c <_ZN6kernel2fs3bio6Bcache5binit17h001013a72aa37c14E>:
        }
    }

    /// Init the bcache.
    /// Should only be called once when the kernel inits itself.
    pub fn binit(&self) {
    8000118c:	7125                	addi	sp,sp,-416
    8000118e:	ef06                	sd	ra,408(sp)
    80001190:	faaa                	sd	a0,368(sp)
        let mut ctrl = self.ctrl.acquire();
    80001192:	00001097          	auipc	ra,0x1
    80001196:	3ae080e7          	jalr	942(ra) # 80002540 <_ZN6kernel4lock8spinlock17Spinlock$LT$T$GT$7acquire17h81cc64e5f1a97b0cE>
    8000119a:	ee2a                	sd	a0,280(sp)
    8000119c:	a009                	j	8000119e <_ZN6kernel2fs3bio6Bcache5binit17h001013a72aa37c14E+0x12>
    8000119e:	0a28                	addi	a0,sp,280
        let len = ctrl.inner.len();
    800011a0:	00002097          	auipc	ra,0x2
    800011a4:	77c080e7          	jalr	1916(ra) # 8000391c <_ZN90_$LT$kernel..lock..spinlock..SpinlockGuard$LT$T$GT$$u20$as$u20$core..ops..deref..Deref$GT$5deref17h987bdf5612280038E>
    800011a8:	ea2a                	sd	a0,272(sp)
    800011aa:	a009                	j	800011ac <_ZN6kernel2fs3bio6Bcache5binit17h001013a72aa37c14E+0x20>
    800011ac:	45f9                	li	a1,30
    800011ae:	6552                	ld	a0,272(sp)
    800011b0:	00016097          	auipc	ra,0x16
    800011b4:	8ea080e7          	jalr	-1814(ra) # 80016a9a <_ZN4core5slice29_$LT$impl$u20$$u5b$T$u5d$$GT$3len17h2724de47f0e590ceE>
    800011b8:	85aa                	mv	a1,a0
    800011ba:	feaa                	sd	a0,376(sp)
    800011bc:	e62e                	sd	a1,264(sp)
    800011be:	a009                	j	800011c0 <_ZN6kernel2fs3bio6Bcache5binit17h001013a72aa37c14E+0x34>
    800011c0:	0a28                	addi	a0,sp,280

        // init the head and tail of the lru list
        ctrl.head = &mut ctrl.inner[0];
    800011c2:	00003097          	auipc	ra,0x3
    800011c6:	818080e7          	jalr	-2024(ra) # 800039da <_ZN93_$LT$kernel..lock..spinlock..SpinlockGuard$LT$T$GT$$u20$as$u20$core..ops..deref..DerefMut$GT$9deref_mut17h7997af61478b5d27E>
    800011ca:	e22a                	sd	a0,256(sp)
    800011cc:	a009                	j	800011ce <_ZN6kernel2fs3bio6Bcache5binit17h001013a72aa37c14E+0x42>
    800011ce:	6512                	ld	a0,256(sp)
    800011d0:	0a2c                	addi	a1,sp,280
    800011d2:	fdaa                	sd	a0,248(sp)
    800011d4:	852e                	mv	a0,a1
    800011d6:	00003097          	auipc	ra,0x3
    800011da:	804080e7          	jalr	-2044(ra) # 800039da <_ZN93_$LT$kernel..lock..spinlock..SpinlockGuard$LT$T$GT$$u20$as$u20$core..ops..deref..DerefMut$GT$9deref_mut17h7997af61478b5d27E>
    800011de:	f9aa                	sd	a0,240(sp)
    800011e0:	a009                	j	800011e2 <_ZN6kernel2fs3bio6Bcache5binit17h001013a72aa37c14E+0x56>
    800011e2:	756e                	ld	a0,248(sp)
    800011e4:	75ce                	ld	a1,240(sp)
    800011e6:	4aa5b823          	sd	a0,1200(a1)
    800011ea:	0a28                	addi	a0,sp,280
        ctrl.tail = &mut ctrl.inner[len-1];
    800011ec:	00002097          	auipc	ra,0x2
    800011f0:	7ee080e7          	jalr	2030(ra) # 800039da <_ZN93_$LT$kernel..lock..spinlock..SpinlockGuard$LT$T$GT$$u20$as$u20$core..ops..deref..DerefMut$GT$9deref_mut17h7997af61478b5d27E>
    800011f4:	f5aa                	sd	a0,232(sp)
    800011f6:	a009                	j	800011f8 <_ZN6kernel2fs3bio6Bcache5binit17h001013a72aa37c14E+0x6c>
    800011f8:	6532                	ld	a0,264(sp)
    800011fa:	fff50593          	addi	a1,a0,-1
    800011fe:	f1ae                	sd	a1,224(sp)
    80001200:	28b56763          	bltu	a0,a1,8000148e <.LBB0_62>
    80001204:	a009                	j	80001206 <_ZN6kernel2fs3bio6Bcache5binit17h001013a72aa37c14E+0x7a>
    80001206:	4575                	li	a0,29
    80001208:	758e                	ld	a1,224(sp)
    8000120a:	2ab56163          	bltu	a0,a1,800014ac <.LBB0_64>
    8000120e:	a009                	j	80001210 <_ZN6kernel2fs3bio6Bcache5binit17h001013a72aa37c14E+0x84>
    80001210:	02800513          	li	a0,40
    80001214:	758e                	ld	a1,224(sp)
    80001216:	02a58533          	mul	a0,a1,a0
    8000121a:	762e                	ld	a2,232(sp)
    8000121c:	9532                	add	a0,a0,a2
    8000121e:	0a34                	addi	a3,sp,280
    80001220:	edaa                	sd	a0,216(sp)
    80001222:	8536                	mv	a0,a3
    80001224:	00002097          	auipc	ra,0x2
    80001228:	7b6080e7          	jalr	1974(ra) # 800039da <_ZN93_$LT$kernel..lock..spinlock..SpinlockGuard$LT$T$GT$$u20$as$u20$core..ops..deref..DerefMut$GT$9deref_mut17h7997af61478b5d27E>
    8000122c:	e9aa                	sd	a0,208(sp)
    8000122e:	a009                	j	80001230 <_ZN6kernel2fs3bio6Bcache5binit17h001013a72aa37c14E+0xa4>
    80001230:	656e                	ld	a0,216(sp)
    80001232:	65ce                	ld	a1,208(sp)
    80001234:	4aa5bc23          	sd	a0,1208(a1)

        // init prev and next field
        ctrl.inner[0].prev = ptr::null_mut();
    80001238:	a009                	j	8000123a <_ZN6kernel2fs3bio6Bcache5binit17h001013a72aa37c14E+0xae>
    8000123a:	0a28                	addi	a0,sp,280
    8000123c:	00002097          	auipc	ra,0x2
    80001240:	79e080e7          	jalr	1950(ra) # 800039da <_ZN93_$LT$kernel..lock..spinlock..SpinlockGuard$LT$T$GT$$u20$as$u20$core..ops..deref..DerefMut$GT$9deref_mut17h7997af61478b5d27E>
    80001244:	e5aa                	sd	a0,200(sp)
    80001246:	a009                	j	80001248 <_ZN6kernel2fs3bio6Bcache5binit17h001013a72aa37c14E+0xbc>
    80001248:	4501                	li	a0,0
    8000124a:	65ae                	ld	a1,200(sp)
    8000124c:	e188                	sd	a0,0(a1)
    8000124e:	0a28                	addi	a0,sp,280
        ctrl.inner[0].next = &mut ctrl.inner[1];
    80001250:	00002097          	auipc	ra,0x2
    80001254:	78a080e7          	jalr	1930(ra) # 800039da <_ZN93_$LT$kernel..lock..spinlock..SpinlockGuard$LT$T$GT$$u20$as$u20$core..ops..deref..DerefMut$GT$9deref_mut17h7997af61478b5d27E>
    80001258:	e1aa                	sd	a0,192(sp)
    8000125a:	a009                	j	8000125c <_ZN6kernel2fs3bio6Bcache5binit17h001013a72aa37c14E+0xd0>
    8000125c:	650e                	ld	a0,192(sp)
    8000125e:	02850593          	addi	a1,a0,40
    80001262:	0a28                	addi	a0,sp,280
    80001264:	fd2e                	sd	a1,184(sp)
    80001266:	00002097          	auipc	ra,0x2
    8000126a:	774080e7          	jalr	1908(ra) # 800039da <_ZN93_$LT$kernel..lock..spinlock..SpinlockGuard$LT$T$GT$$u20$as$u20$core..ops..deref..DerefMut$GT$9deref_mut17h7997af61478b5d27E>
    8000126e:	f92a                	sd	a0,176(sp)
    80001270:	a009                	j	80001272 <_ZN6kernel2fs3bio6Bcache5binit17h001013a72aa37c14E+0xe6>
    80001272:	756a                	ld	a0,184(sp)
    80001274:	75ca                	ld	a1,176(sp)
    80001276:	e588                	sd	a0,8(a1)
    80001278:	0a28                	addi	a0,sp,280
        ctrl.inner[len-1].prev = &mut ctrl.inner[len-2];
    8000127a:	00002097          	auipc	ra,0x2
    8000127e:	760080e7          	jalr	1888(ra) # 800039da <_ZN93_$LT$kernel..lock..spinlock..SpinlockGuard$LT$T$GT$$u20$as$u20$core..ops..deref..DerefMut$GT$9deref_mut17h7997af61478b5d27E>
    80001282:	f52a                	sd	a0,168(sp)
    80001284:	a009                	j	80001286 <_ZN6kernel2fs3bio6Bcache5binit17h001013a72aa37c14E+0xfa>
    80001286:	6532                	ld	a0,264(sp)
    80001288:	ffe50593          	addi	a1,a0,-2
    8000128c:	f12e                	sd	a1,160(sp)
    8000128e:	22b56a63          	bltu	a0,a1,800014c2 <.LBB0_65>
    80001292:	a009                	j	80001294 <_ZN6kernel2fs3bio6Bcache5binit17h001013a72aa37c14E+0x108>
    80001294:	4575                	li	a0,29
    80001296:	758a                	ld	a1,160(sp)
    80001298:	24b56463          	bltu	a0,a1,800014e0 <.LBB0_67>
    8000129c:	a009                	j	8000129e <_ZN6kernel2fs3bio6Bcache5binit17h001013a72aa37c14E+0x112>
    8000129e:	02800513          	li	a0,40
    800012a2:	758a                	ld	a1,160(sp)
    800012a4:	02a58533          	mul	a0,a1,a0
    800012a8:	762a                	ld	a2,168(sp)
    800012aa:	9532                	add	a0,a0,a2
    800012ac:	0a34                	addi	a3,sp,280
    800012ae:	ed2a                	sd	a0,152(sp)
    800012b0:	8536                	mv	a0,a3
    800012b2:	00002097          	auipc	ra,0x2
    800012b6:	728080e7          	jalr	1832(ra) # 800039da <_ZN93_$LT$kernel..lock..spinlock..SpinlockGuard$LT$T$GT$$u20$as$u20$core..ops..deref..DerefMut$GT$9deref_mut17h7997af61478b5d27E>
    800012ba:	e92a                	sd	a0,144(sp)
    800012bc:	a009                	j	800012be <_ZN6kernel2fs3bio6Bcache5binit17h001013a72aa37c14E+0x132>
    800012be:	6532                	ld	a0,264(sp)
    800012c0:	fff50593          	addi	a1,a0,-1
    800012c4:	e52e                	sd	a1,136(sp)
    800012c6:	22b56863          	bltu	a0,a1,800014f6 <.LBB0_68>
    800012ca:	a009                	j	800012cc <_ZN6kernel2fs3bio6Bcache5binit17h001013a72aa37c14E+0x140>
    800012cc:	4575                	li	a0,29
    800012ce:	65aa                	ld	a1,136(sp)
    800012d0:	24b56263          	bltu	a0,a1,80001514 <.LBB0_70>
    800012d4:	a009                	j	800012d6 <_ZN6kernel2fs3bio6Bcache5binit17h001013a72aa37c14E+0x14a>
    800012d6:	02800513          	li	a0,40
    800012da:	65aa                	ld	a1,136(sp)
    800012dc:	02a58533          	mul	a0,a1,a0
    800012e0:	664a                	ld	a2,144(sp)
    800012e2:	9532                	add	a0,a0,a2
    800012e4:	66ea                	ld	a3,152(sp)
    800012e6:	e114                	sd	a3,0(a0)
        ctrl.inner[len-1].next = ptr::null_mut();
    800012e8:	a009                	j	800012ea <_ZN6kernel2fs3bio6Bcache5binit17h001013a72aa37c14E+0x15e>
    800012ea:	0a28                	addi	a0,sp,280
    800012ec:	00002097          	auipc	ra,0x2
    800012f0:	6ee080e7          	jalr	1774(ra) # 800039da <_ZN93_$LT$kernel..lock..spinlock..SpinlockGuard$LT$T$GT$$u20$as$u20$core..ops..deref..DerefMut$GT$9deref_mut17h7997af61478b5d27E>
    800012f4:	e12a                	sd	a0,128(sp)
    800012f6:	a009                	j	800012f8 <_ZN6kernel2fs3bio6Bcache5binit17h001013a72aa37c14E+0x16c>
    800012f8:	6532                	ld	a0,264(sp)
    800012fa:	fff50593          	addi	a1,a0,-1
    800012fe:	fcae                	sd	a1,120(sp)
    80001300:	22b56563          	bltu	a0,a1,8000152a <.LBB0_71>
    80001304:	a009                	j	80001306 <_ZN6kernel2fs3bio6Bcache5binit17h001013a72aa37c14E+0x17a>
    80001306:	4575                	li	a0,29
    80001308:	75e6                	ld	a1,120(sp)
    8000130a:	22b56f63          	bltu	a0,a1,80001548 <.LBB0_73>
    8000130e:	a009                	j	80001310 <_ZN6kernel2fs3bio6Bcache5binit17h001013a72aa37c14E+0x184>
    80001310:	02800513          	li	a0,40
    80001314:	75e6                	ld	a1,120(sp)
    80001316:	02a58533          	mul	a0,a1,a0
    8000131a:	660a                	ld	a2,128(sp)
    8000131c:	9532                	add	a0,a0,a2
    8000131e:	4681                	li	a3,0
    80001320:	e514                	sd	a3,8(a0)
        for i in 1..(len-1) {
    80001322:	6532                	ld	a0,264(sp)
    80001324:	fff50693          	addi	a3,a0,-1
    80001328:	f8b6                	sd	a3,112(sp)
    8000132a:	22d56a63          	bltu	a0,a3,8000155e <.LBB0_74>
    8000132e:	a009                	j	80001330 <_ZN6kernel2fs3bio6Bcache5binit17h001013a72aa37c14E+0x1a4>
    80001330:	4505                	li	a0,1
    80001332:	f22a                	sd	a0,288(sp)
    80001334:	75c6                	ld	a1,112(sp)
    80001336:	f62e                	sd	a1,296(sp)
    80001338:	0001e097          	auipc	ra,0x1e
    8000133c:	772080e7          	jalr	1906(ra) # 8001faaa <_ZN63_$LT$I$u20$as$u20$core..iter..traits..collect..IntoIterator$GT$9into_iter17h92e6aa52e7711fa6E>
    80001340:	f4aa                	sd	a0,104(sp)
    80001342:	f0ae                	sd	a1,96(sp)
    80001344:	a009                	j	80001346 <_ZN6kernel2fs3bio6Bcache5binit17h001013a72aa37c14E+0x1ba>
    80001346:	7526                	ld	a0,104(sp)
    80001348:	fa2a                	sd	a0,304(sp)
    8000134a:	7586                	ld	a1,96(sp)
    8000134c:	fe2e                	sd	a1,312(sp)
    8000134e:	a009                	j	80001350 <_ZN6kernel2fs3bio6Bcache5binit17h001013a72aa37c14E+0x1c4>
    80001350:	1a08                	addi	a0,sp,304
    80001352:	0001e097          	auipc	ra,0x1e
    80001356:	6ea080e7          	jalr	1770(ra) # 8001fa3c <_ZN4core4iter5range101_$LT$impl$u20$core..iter..traits..iterator..Iterator$u20$for$u20$core..ops..range..Range$LT$A$GT$$GT$4next17ha02fccad1cc457ffE>
    8000135a:	e2aa                	sd	a0,320(sp)
    8000135c:	e6ae                	sd	a1,328(sp)
    8000135e:	a009                	j	80001360 <_ZN6kernel2fs3bio6Bcache5binit17h001013a72aa37c14E+0x1d4>
    80001360:	6516                	ld	a0,320(sp)
    80001362:	4581                	li	a1,0
    80001364:	00b50463          	beq	a0,a1,8000136c <_ZN6kernel2fs3bio6Bcache5binit17h001013a72aa37c14E+0x1e0>
    80001368:	a009                	j	8000136a <_ZN6kernel2fs3bio6Bcache5binit17h001013a72aa37c14E+0x1de>
    8000136a:	a809                	j	8000137c <_ZN6kernel2fs3bio6Bcache5binit17h001013a72aa37c14E+0x1f0>
    8000136c:	0a28                	addi	a0,sp,280
            ctrl.inner[i].prev = &mut ctrl.inner[i-1];
            ctrl.inner[i].next = &mut ctrl.inner[i+1];
        }
        
        // init index
        ctrl.inner.iter_mut()
    8000136e:	00002097          	auipc	ra,0x2
    80001372:	66c080e7          	jalr	1644(ra) # 800039da <_ZN93_$LT$kernel..lock..spinlock..SpinlockGuard$LT$T$GT$$u20$as$u20$core..ops..deref..DerefMut$GT$9deref_mut17h7997af61478b5d27E>
    80001376:	ecaa                	sd	a0,88(sp)
    80001378:	a8d9                	j	8000144e <_ZN6kernel2fs3bio6Bcache5binit17h001013a72aa37c14E+0x2c2>
        for i in 1..(len-1) {
    8000137a:	0000                	unimp
    8000137c:	6536                	ld	a0,328(sp)
    8000137e:	e32a                	sd	a0,384(sp)
    80001380:	e72a                	sd	a0,392(sp)
    80001382:	eb2a                	sd	a0,400(sp)
    80001384:	0a2c                	addi	a1,sp,280
            ctrl.inner[i].prev = &mut ctrl.inner[i-1];
    80001386:	e8aa                	sd	a0,80(sp)
    80001388:	852e                	mv	a0,a1
    8000138a:	00002097          	auipc	ra,0x2
    8000138e:	650080e7          	jalr	1616(ra) # 800039da <_ZN93_$LT$kernel..lock..spinlock..SpinlockGuard$LT$T$GT$$u20$as$u20$core..ops..deref..DerefMut$GT$9deref_mut17h7997af61478b5d27E>
    80001392:	e4aa                	sd	a0,72(sp)
    80001394:	a009                	j	80001396 <_ZN6kernel2fs3bio6Bcache5binit17h001013a72aa37c14E+0x20a>
    80001396:	6546                	ld	a0,80(sp)
    80001398:	fff50593          	addi	a1,a0,-1
    8000139c:	e0ae                	sd	a1,64(sp)
    8000139e:	1cb56f63          	bltu	a0,a1,8000157c <.LBB0_76>
    800013a2:	a009                	j	800013a4 <_ZN6kernel2fs3bio6Bcache5binit17h001013a72aa37c14E+0x218>
    800013a4:	4575                	li	a0,29
    800013a6:	6586                	ld	a1,64(sp)
    800013a8:	1eb56963          	bltu	a0,a1,8000159a <.LBB0_78>
    800013ac:	a009                	j	800013ae <_ZN6kernel2fs3bio6Bcache5binit17h001013a72aa37c14E+0x222>
    800013ae:	02800513          	li	a0,40
    800013b2:	6586                	ld	a1,64(sp)
    800013b4:	02a58533          	mul	a0,a1,a0
    800013b8:	6626                	ld	a2,72(sp)
    800013ba:	9532                	add	a0,a0,a2
    800013bc:	0a34                	addi	a3,sp,280
    800013be:	fc2a                	sd	a0,56(sp)
    800013c0:	8536                	mv	a0,a3
    800013c2:	00002097          	auipc	ra,0x2
    800013c6:	618080e7          	jalr	1560(ra) # 800039da <_ZN93_$LT$kernel..lock..spinlock..SpinlockGuard$LT$T$GT$$u20$as$u20$core..ops..deref..DerefMut$GT$9deref_mut17h7997af61478b5d27E>
    800013ca:	f82a                	sd	a0,48(sp)
    800013cc:	a009                	j	800013ce <_ZN6kernel2fs3bio6Bcache5binit17h001013a72aa37c14E+0x242>
    800013ce:	4575                	li	a0,29
    800013d0:	65c6                	ld	a1,80(sp)
    800013d2:	1cb56f63          	bltu	a0,a1,800015b0 <.LBB0_79>
    800013d6:	a009                	j	800013d8 <_ZN6kernel2fs3bio6Bcache5binit17h001013a72aa37c14E+0x24c>
    800013d8:	02800513          	li	a0,40
    800013dc:	65c6                	ld	a1,80(sp)
    800013de:	02a58533          	mul	a0,a1,a0
    800013e2:	7642                	ld	a2,48(sp)
    800013e4:	9532                	add	a0,a0,a2
    800013e6:	76e2                	ld	a3,56(sp)
    800013e8:	e114                	sd	a3,0(a0)
    800013ea:	0a28                	addi	a0,sp,280
            ctrl.inner[i].next = &mut ctrl.inner[i+1];
    800013ec:	00002097          	auipc	ra,0x2
    800013f0:	5ee080e7          	jalr	1518(ra) # 800039da <_ZN93_$LT$kernel..lock..spinlock..SpinlockGuard$LT$T$GT$$u20$as$u20$core..ops..deref..DerefMut$GT$9deref_mut17h7997af61478b5d27E>
    800013f4:	f42a                	sd	a0,40(sp)
    800013f6:	a009                	j	800013f8 <_ZN6kernel2fs3bio6Bcache5binit17h001013a72aa37c14E+0x26c>
    800013f8:	6546                	ld	a0,80(sp)
    800013fa:	00150593          	addi	a1,a0,1
    800013fe:	f02e                	sd	a1,32(sp)
    80001400:	1ca5e363          	bltu	a1,a0,800015c6 <.LBB0_80>
    80001404:	a009                	j	80001406 <_ZN6kernel2fs3bio6Bcache5binit17h001013a72aa37c14E+0x27a>
    80001406:	4575                	li	a0,29
    80001408:	7582                	ld	a1,32(sp)
    8000140a:	1cb56c63          	bltu	a0,a1,800015e2 <.LBB0_82>
    8000140e:	a009                	j	80001410 <_ZN6kernel2fs3bio6Bcache5binit17h001013a72aa37c14E+0x284>
    80001410:	02800513          	li	a0,40
    80001414:	7582                	ld	a1,32(sp)
    80001416:	02a58533          	mul	a0,a1,a0
    8000141a:	7622                	ld	a2,40(sp)
    8000141c:	9532                	add	a0,a0,a2
    8000141e:	0a34                	addi	a3,sp,280
    80001420:	ec2a                	sd	a0,24(sp)
    80001422:	8536                	mv	a0,a3
    80001424:	00002097          	auipc	ra,0x2
    80001428:	5b6080e7          	jalr	1462(ra) # 800039da <_ZN93_$LT$kernel..lock..spinlock..SpinlockGuard$LT$T$GT$$u20$as$u20$core..ops..deref..DerefMut$GT$9deref_mut17h7997af61478b5d27E>
    8000142c:	e82a                	sd	a0,16(sp)
    8000142e:	a009                	j	80001430 <_ZN6kernel2fs3bio6Bcache5binit17h001013a72aa37c14E+0x2a4>
    80001430:	4575                	li	a0,29
    80001432:	65c6                	ld	a1,80(sp)
    80001434:	1cb56263          	bltu	a0,a1,800015f8 <.LBB0_83>
    80001438:	a009                	j	8000143a <_ZN6kernel2fs3bio6Bcache5binit17h001013a72aa37c14E+0x2ae>
    8000143a:	02800513          	li	a0,40
    8000143e:	65c6                	ld	a1,80(sp)
    80001440:	02a58533          	mul	a0,a1,a0
    80001444:	6642                	ld	a2,16(sp)
    80001446:	9532                	add	a0,a0,a2
    80001448:	66e2                	ld	a3,24(sp)
    8000144a:	e514                	sd	a3,8(a0)
        for i in 1..(len-1) {
    8000144c:	b711                	j	80001350 <_ZN6kernel2fs3bio6Bcache5binit17h001013a72aa37c14E+0x1c4>
    8000144e:	45f9                	li	a1,30
        ctrl.inner.iter_mut()
    80001450:	6566                	ld	a0,88(sp)
    80001452:	00015097          	auipc	ra,0x15
    80001456:	658080e7          	jalr	1624(ra) # 80016aaa <_ZN4core5slice29_$LT$impl$u20$$u5b$T$u5d$$GT$8iter_mut17hcfa1e835f1d2856bE>
    8000145a:	e42a                	sd	a0,8(sp)
    8000145c:	e02e                	sd	a1,0(sp)
    8000145e:	a009                	j	80001460 <_ZN6kernel2fs3bio6Bcache5binit17h001013a72aa37c14E+0x2d4>
    80001460:	0a88                	addi	a0,sp,336
    80001462:	65a2                	ld	a1,8(sp)
    80001464:	6602                	ld	a2,0(sp)
    80001466:	00012097          	auipc	ra,0x12
    8000146a:	936080e7          	jalr	-1738(ra) # 80012d9c <_ZN4core4iter6traits8iterator8Iterator9enumerate17hfb8292d51cdefbebE>
    8000146e:	a009                	j	80001470 <_ZN6kernel2fs3bio6Bcache5binit17h001013a72aa37c14E+0x2e4>
    80001470:	0a88                	addi	a0,sp,336
    80001472:	00015097          	auipc	ra,0x15
    80001476:	cd2080e7          	jalr	-814(ra) # 80016144 <_ZN4core4iter6traits8iterator8Iterator8for_each17ha2fb126c57faa0d0E>
    8000147a:	a009                	j	8000147c <_ZN6kernel2fs3bio6Bcache5binit17h001013a72aa37c14E+0x2f0>
    8000147c:	0a28                	addi	a0,sp,280
            .enumerate()
            .for_each(|(i, b)| b.index = i);
    }
    8000147e:	00005097          	auipc	ra,0x5
    80001482:	53e080e7          	jalr	1342(ra) # 800069bc <_ZN4core3ptr89drop_in_place$LT$kernel..lock..spinlock..SpinlockGuard$LT$kernel..fs..bio..BufLru$GT$$GT$17heb8f06842278fadcE>
    80001486:	a009                	j	80001488 <_ZN6kernel2fs3bio6Bcache5binit17h001013a72aa37c14E+0x2fc>
    80001488:	60fa                	ld	ra,408(sp)
    8000148a:	611d                	addi	sp,sp,416
    8000148c:	8082                	ret

000000008000148e <.LBB0_62>:
        ctrl.tail = &mut ctrl.inner[len-1];
    8000148e:	00022517          	auipc	a0,0x22
    80001492:	48250513          	addi	a0,a0,1154 # 80023910 <str.0>

0000000080001496 <.LBB0_63>:
    80001496:	00022617          	auipc	a2,0x22
    8000149a:	46260613          	addi	a2,a2,1122 # 800238f8 <.L__unnamed_1>
    8000149e:	02100593          	li	a1,33
    800014a2:	00020097          	auipc	ra,0x20
    800014a6:	828080e7          	jalr	-2008(ra) # 80020cca <_ZN4core9panicking5panic17h4214b4eed8d3f37fE>
	...

00000000800014ac <.LBB0_64>:
    800014ac:	00022617          	auipc	a2,0x22
    800014b0:	48c60613          	addi	a2,a2,1164 # 80023938 <.L__unnamed_2>
    800014b4:	45f9                	li	a1,30
    800014b6:	750e                	ld	a0,224(sp)
    800014b8:	00020097          	auipc	ra,0x20
    800014bc:	83e080e7          	jalr	-1986(ra) # 80020cf6 <_ZN4core9panicking18panic_bounds_check17ha760e6d8204f3836E>
	...

00000000800014c2 <.LBB0_65>:
        ctrl.inner[len-1].prev = &mut ctrl.inner[len-2];
    800014c2:	00022517          	auipc	a0,0x22
    800014c6:	44e50513          	addi	a0,a0,1102 # 80023910 <str.0>

00000000800014ca <.LBB0_66>:
    800014ca:	00022617          	auipc	a2,0x22
    800014ce:	48660613          	addi	a2,a2,1158 # 80023950 <.L__unnamed_3>
    800014d2:	02100593          	li	a1,33
    800014d6:	0001f097          	auipc	ra,0x1f
    800014da:	7f4080e7          	jalr	2036(ra) # 80020cca <_ZN4core9panicking5panic17h4214b4eed8d3f37fE>
	...

00000000800014e0 <.LBB0_67>:
    800014e0:	00022617          	auipc	a2,0x22
    800014e4:	48860613          	addi	a2,a2,1160 # 80023968 <.L__unnamed_4>
    800014e8:	45f9                	li	a1,30
    800014ea:	750a                	ld	a0,160(sp)
    800014ec:	00020097          	auipc	ra,0x20
    800014f0:	80a080e7          	jalr	-2038(ra) # 80020cf6 <_ZN4core9panicking18panic_bounds_check17ha760e6d8204f3836E>
	...

00000000800014f6 <.LBB0_68>:
    800014f6:	00022517          	auipc	a0,0x22
    800014fa:	41a50513          	addi	a0,a0,1050 # 80023910 <str.0>

00000000800014fe <.LBB0_69>:
    800014fe:	00022617          	auipc	a2,0x22
    80001502:	48260613          	addi	a2,a2,1154 # 80023980 <.L__unnamed_5>
    80001506:	02100593          	li	a1,33
    8000150a:	0001f097          	auipc	ra,0x1f
    8000150e:	7c0080e7          	jalr	1984(ra) # 80020cca <_ZN4core9panicking5panic17h4214b4eed8d3f37fE>
	...

0000000080001514 <.LBB0_70>:
    80001514:	00022617          	auipc	a2,0x22
    80001518:	48460613          	addi	a2,a2,1156 # 80023998 <.L__unnamed_6>
    8000151c:	45f9                	li	a1,30
    8000151e:	652a                	ld	a0,136(sp)
    80001520:	0001f097          	auipc	ra,0x1f
    80001524:	7d6080e7          	jalr	2006(ra) # 80020cf6 <_ZN4core9panicking18panic_bounds_check17ha760e6d8204f3836E>
	...

000000008000152a <.LBB0_71>:
        ctrl.inner[len-1].next = ptr::null_mut();
    8000152a:	00022517          	auipc	a0,0x22
    8000152e:	3e650513          	addi	a0,a0,998 # 80023910 <str.0>

0000000080001532 <.LBB0_72>:
    80001532:	00022617          	auipc	a2,0x22
    80001536:	47e60613          	addi	a2,a2,1150 # 800239b0 <.L__unnamed_7>
    8000153a:	02100593          	li	a1,33
    8000153e:	0001f097          	auipc	ra,0x1f
    80001542:	78c080e7          	jalr	1932(ra) # 80020cca <_ZN4core9panicking5panic17h4214b4eed8d3f37fE>
	...

0000000080001548 <.LBB0_73>:
    80001548:	00022617          	auipc	a2,0x22
    8000154c:	48060613          	addi	a2,a2,1152 # 800239c8 <.L__unnamed_8>
    80001550:	45f9                	li	a1,30
    80001552:	7566                	ld	a0,120(sp)
    80001554:	0001f097          	auipc	ra,0x1f
    80001558:	7a2080e7          	jalr	1954(ra) # 80020cf6 <_ZN4core9panicking18panic_bounds_check17ha760e6d8204f3836E>
	...

000000008000155e <.LBB0_74>:
        for i in 1..(len-1) {
    8000155e:	00022517          	auipc	a0,0x22
    80001562:	3b250513          	addi	a0,a0,946 # 80023910 <str.0>

0000000080001566 <.LBB0_75>:
    80001566:	00022617          	auipc	a2,0x22
    8000156a:	47a60613          	addi	a2,a2,1146 # 800239e0 <.L__unnamed_9>
    8000156e:	02100593          	li	a1,33
    80001572:	0001f097          	auipc	ra,0x1f
    80001576:	758080e7          	jalr	1880(ra) # 80020cca <_ZN4core9panicking5panic17h4214b4eed8d3f37fE>
	...

000000008000157c <.LBB0_76>:
            ctrl.inner[i].prev = &mut ctrl.inner[i-1];
    8000157c:	00022517          	auipc	a0,0x22
    80001580:	39450513          	addi	a0,a0,916 # 80023910 <str.0>

0000000080001584 <.LBB0_77>:
    80001584:	00022617          	auipc	a2,0x22
    80001588:	47460613          	addi	a2,a2,1140 # 800239f8 <.L__unnamed_10>
    8000158c:	02100593          	li	a1,33
    80001590:	0001f097          	auipc	ra,0x1f
    80001594:	73a080e7          	jalr	1850(ra) # 80020cca <_ZN4core9panicking5panic17h4214b4eed8d3f37fE>
	...

000000008000159a <.LBB0_78>:
    8000159a:	00022617          	auipc	a2,0x22
    8000159e:	47660613          	addi	a2,a2,1142 # 80023a10 <.L__unnamed_11>
    800015a2:	45f9                	li	a1,30
    800015a4:	6506                	ld	a0,64(sp)
    800015a6:	0001f097          	auipc	ra,0x1f
    800015aa:	750080e7          	jalr	1872(ra) # 80020cf6 <_ZN4core9panicking18panic_bounds_check17ha760e6d8204f3836E>
	...

00000000800015b0 <.LBB0_79>:
    800015b0:	00022617          	auipc	a2,0x22
    800015b4:	47860613          	addi	a2,a2,1144 # 80023a28 <.L__unnamed_12>
    800015b8:	45f9                	li	a1,30
    800015ba:	6546                	ld	a0,80(sp)
    800015bc:	0001f097          	auipc	ra,0x1f
    800015c0:	73a080e7          	jalr	1850(ra) # 80020cf6 <_ZN4core9panicking18panic_bounds_check17ha760e6d8204f3836E>
	...

00000000800015c6 <.LBB0_80>:
            ctrl.inner[i].next = &mut ctrl.inner[i+1];
    800015c6:	00022517          	auipc	a0,0x22
    800015ca:	49a50513          	addi	a0,a0,1178 # 80023a60 <str.1>

00000000800015ce <.LBB0_81>:
    800015ce:	00022617          	auipc	a2,0x22
    800015d2:	47260613          	addi	a2,a2,1138 # 80023a40 <.L__unnamed_13>
    800015d6:	45f1                	li	a1,28
    800015d8:	0001f097          	auipc	ra,0x1f
    800015dc:	6f2080e7          	jalr	1778(ra) # 80020cca <_ZN4core9panicking5panic17h4214b4eed8d3f37fE>
	...

00000000800015e2 <.LBB0_82>:
    800015e2:	00022617          	auipc	a2,0x22
    800015e6:	49e60613          	addi	a2,a2,1182 # 80023a80 <.L__unnamed_14>
    800015ea:	45f9                	li	a1,30
    800015ec:	7502                	ld	a0,32(sp)
    800015ee:	0001f097          	auipc	ra,0x1f
    800015f2:	708080e7          	jalr	1800(ra) # 80020cf6 <_ZN4core9panicking18panic_bounds_check17ha760e6d8204f3836E>
	...

00000000800015f8 <.LBB0_83>:
    800015f8:	00022617          	auipc	a2,0x22
    800015fc:	4a060613          	addi	a2,a2,1184 # 80023a98 <.L__unnamed_15>
    80001600:	45f9                	li	a1,30
    80001602:	6546                	ld	a0,80(sp)
    80001604:	0001f097          	auipc	ra,0x1f
    80001608:	6f2080e7          	jalr	1778(ra) # 80020cf6 <_ZN4core9panicking18panic_bounds_check17ha760e6d8204f3836E>
	...

Disassembly of section .text._ZN6kernel2fs3bio6Bcache4bget17h8beb24e79d66a706E:

000000008000160e <_ZN6kernel2fs3bio6Bcache4bget17h8beb24e79d66a706E>:

    fn bget(&self, dev: u32, blockno: u32) -> Buf<'_> {
    8000160e:	716d                	addi	sp,sp,-272
    80001610:	e606                	sd	ra,264(sp)
    80001612:	8736                	mv	a4,a3
    80001614:	87b2                	mv	a5,a2
    80001616:	edae                	sd	a1,216(sp)
    80001618:	d1b2                	sw	a2,224(sp)
    8000161a:	d3b6                	sw	a3,228(sp)
        let mut ctrl = self.ctrl.acquire();
    8000161c:	f8aa                	sd	a0,112(sp)
    8000161e:	852e                	mv	a0,a1
    80001620:	f4ae                	sd	a1,104(sp)
    80001622:	f0ba                	sd	a4,96(sp)
    80001624:	ecbe                	sd	a5,88(sp)
    80001626:	00001097          	auipc	ra,0x1
    8000162a:	f1a080e7          	jalr	-230(ra) # 80002540 <_ZN6kernel4lock8spinlock17Spinlock$LT$T$GT$7acquire17h81cc64e5f1a97b0cE>
    8000162e:	fcaa                	sd	a0,120(sp)
    80001630:	a009                	j	80001632 <_ZN6kernel2fs3bio6Bcache4bget17h8beb24e79d66a706E+0x24>
    80001632:	18a8                	addi	a0,sp,120

        // find cached block
        match ctrl.find_cached(dev, blockno) {
    80001634:	00002097          	auipc	ra,0x2
    80001638:	3a6080e7          	jalr	934(ra) # 800039da <_ZN93_$LT$kernel..lock..spinlock..SpinlockGuard$LT$T$GT$$u20$as$u20$core..ops..deref..DerefMut$GT$9deref_mut17h7997af61478b5d27E>
    8000163c:	e8aa                	sd	a0,80(sp)
    8000163e:	a009                	j	80001640 <_ZN6kernel2fs3bio6Bcache4bget17h8beb24e79d66a706E+0x32>
    80001640:	0108                	addi	a0,sp,128
    80001642:	65c6                	ld	a1,80(sp)
    80001644:	6666                	ld	a2,88(sp)
    80001646:	7686                	ld	a3,96(sp)
    80001648:	00000097          	auipc	ra,0x0
    8000164c:	444080e7          	jalr	1092(ra) # 80001a8c <_ZN6kernel2fs3bio6BufLru11find_cached17hd82557e825fdfaf6E>
    80001650:	a009                	j	80001652 <_ZN6kernel2fs3bio6Bcache4bget17h8beb24e79d66a706E+0x44>
            Some((index, rc_ptr)) => {
    80001652:	650a                	ld	a0,128(sp)
    80001654:	4581                	li	a1,0
    80001656:	00b50463          	beq	a0,a1,8000165e <_ZN6kernel2fs3bio6Bcache4bget17h8beb24e79d66a706E+0x50>
    8000165a:	a009                	j	8000165c <_ZN6kernel2fs3bio6Bcache4bget17h8beb24e79d66a706E+0x4e>
    8000165c:	a809                	j	8000166e <_ZN6kernel2fs3bio6Bcache4bget17h8beb24e79d66a706E+0x60>
    8000165e:	18a8                	addi	a0,sp,120
                }
            }
            None => {
                // not cached
                // recycle the least recently used (LRU) unused buffer
                match ctrl.recycle(dev, blockno) {
    80001660:	00002097          	auipc	ra,0x2
    80001664:	37a080e7          	jalr	890(ra) # 800039da <_ZN93_$LT$kernel..lock..spinlock..SpinlockGuard$LT$T$GT$$u20$as$u20$core..ops..deref..DerefMut$GT$9deref_mut17h7997af61478b5d27E>
    80001668:	e4aa                	sd	a0,72(sp)
    8000166a:	a88d                	j	800016dc <_ZN6kernel2fs3bio6Bcache4bget17h8beb24e79d66a706E+0xce>
        match ctrl.find_cached(dev, blockno) {
    8000166c:	0000                	unimp
            Some((index, rc_ptr)) => {
    8000166e:	652a                	ld	a0,136(sp)
    80001670:	f5aa                	sd	a0,232(sp)
    80001672:	65ca                	ld	a1,144(sp)
    80001674:	f9ae                	sd	a1,240(sp)
                drop(ctrl);
    80001676:	7666                	ld	a2,120(sp)
    80001678:	e0aa                	sd	a0,64(sp)
    8000167a:	8532                	mv	a0,a2
    8000167c:	fc2e                	sd	a1,56(sp)
    8000167e:	0000c097          	auipc	ra,0xc
    80001682:	38c080e7          	jalr	908(ra) # 8000da0a <_ZN4core3mem4drop17hc9b81b24632c5a18E>
    80001686:	a009                	j	80001688 <_ZN6kernel2fs3bio6Bcache4bget17h8beb24e79d66a706E+0x7a>
    80001688:	4575                	li	a0,29
                    data: Some(self.bufs[index].data.lock())
    8000168a:	6586                	ld	a1,64(sp)
    8000168c:	12b56863          	bltu	a0,a1,800017bc <.LBB1_28>
    80001690:	a009                	j	80001692 <_ZN6kernel2fs3bio6Bcache4bget17h8beb24e79d66a706E+0x84>
    80001692:	44000513          	li	a0,1088
    80001696:	6586                	ld	a1,64(sp)
    80001698:	02a58533          	mul	a0,a1,a0
    8000169c:	7626                	ld	a2,104(sp)
    8000169e:	9532                	add	a0,a0,a2
    800016a0:	4e050513          	addi	a0,a0,1248
    800016a4:	00006097          	auipc	ra,0x6
    800016a8:	bf4080e7          	jalr	-1036(ra) # 80007298 <_ZN6kernel4lock9sleeplock18SleepLock$LT$T$GT$4lock17hb46c354802470312E>
    800016ac:	f82a                	sd	a0,48(sp)
    800016ae:	f42e                	sd	a1,40(sp)
    800016b0:	a009                	j	800016b2 <_ZN6kernel2fs3bio6Bcache4bget17h8beb24e79d66a706E+0xa4>
    800016b2:	7542                	ld	a0,48(sp)
    800016b4:	ed2a                	sd	a0,152(sp)
    800016b6:	75a2                	ld	a1,40(sp)
    800016b8:	f12e                	sd	a1,160(sp)
                Buf {
    800016ba:	6606                	ld	a2,64(sp)
    800016bc:	76c6                	ld	a3,112(sp)
    800016be:	e290                	sd	a2,0(a3)
    800016c0:	6766                	ld	a4,88(sp)
    800016c2:	d298                	sw	a4,32(a3)
    800016c4:	7786                	ld	a5,96(sp)
    800016c6:	d2dc                	sw	a5,36(a3)
    800016c8:	7862                	ld	a6,56(sp)
    800016ca:	0106b423          	sd	a6,8(a3)
    800016ce:	68ea                	ld	a7,152(sp)
    800016d0:	728a                	ld	t0,160(sp)
    800016d2:	0116b823          	sd	a7,16(a3)
    800016d6:	0056bc23          	sd	t0,24(a3)
                    }
                    None => panic!("no usable buffer")
                }
            }
        }
    }
    800016da:	a8f1                	j	800017b6 <.LBB1_27+0xb4>
    800016dc:	1128                	addi	a0,sp,168
                match ctrl.recycle(dev, blockno) {
    800016de:	65a6                	ld	a1,72(sp)
    800016e0:	6666                	ld	a2,88(sp)
    800016e2:	7686                	ld	a3,96(sp)
    800016e4:	00000097          	auipc	ra,0x0
    800016e8:	49e080e7          	jalr	1182(ra) # 80001b82 <_ZN6kernel2fs3bio6BufLru7recycle17h85a1229316c63c5eE>
    800016ec:	a009                	j	800016ee <_ZN6kernel2fs3bio6Bcache4bget17h8beb24e79d66a706E+0xe0>
                    Some((index, rc_ptr)) => {
    800016ee:	752a                	ld	a0,168(sp)
    800016f0:	4581                	li	a1,0
    800016f2:	00b50463          	beq	a0,a1,800016fa <.LBB1_26>
    800016f6:	a009                	j	800016f8 <_ZN6kernel2fs3bio6Bcache4bget17h8beb24e79d66a706E+0xea>
    800016f8:	a005                	j	80001718 <.LBB1_27+0x16>

00000000800016fa <.LBB1_26>:
                    None => panic!("no usable buffer")
    800016fa:	00022517          	auipc	a0,0x22
    800016fe:	46e50513          	addi	a0,a0,1134 # 80023b68 <.L__unnamed_20+0x88>

0000000080001702 <.LBB1_27>:
    80001702:	00022617          	auipc	a2,0x22
    80001706:	49660613          	addi	a2,a2,1174 # 80023b98 <.L__unnamed_17>
    8000170a:	45c1                	li	a1,16
    8000170c:	0001f097          	auipc	ra,0x1f
    80001710:	5be080e7          	jalr	1470(ra) # 80020cca <_ZN4core9panicking5panic17h4214b4eed8d3f37fE>
    80001714:	0000                	unimp
                match ctrl.recycle(dev, blockno) {
    80001716:	0000                	unimp
                    Some((index, rc_ptr)) => {
    80001718:	754a                	ld	a0,176(sp)
    8000171a:	fdaa                	sd	a0,248(sp)
    8000171c:	75ea                	ld	a1,184(sp)
    8000171e:	e22e                	sd	a1,256(sp)
    80001720:	4675                	li	a2,29
                        self.bufs[index].valid.store(false, Ordering::Relaxed);
    80001722:	f02a                	sd	a0,32(sp)
    80001724:	ec2e                	sd	a1,24(sp)
    80001726:	0aa66663          	bltu	a2,a0,800017d2 <.LBB1_29>
    8000172a:	a009                	j	8000172c <.LBB1_27+0x2a>
    8000172c:	44000513          	li	a0,1088
    80001730:	7582                	ld	a1,32(sp)
    80001732:	02a58533          	mul	a0,a1,a0
    80001736:	7626                	ld	a2,104(sp)
    80001738:	9532                	add	a0,a0,a2
    8000173a:	48c50513          	addi	a0,a0,1164
    8000173e:	48c50513          	addi	a0,a0,1164
    80001742:	4681                	li	a3,0
    80001744:	0cd103a3          	sb	a3,199(sp)
    80001748:	85b6                	mv	a1,a3
    8000174a:	8636                	mv	a2,a3
    8000174c:	0000c097          	auipc	ra,0xc
    80001750:	86e080e7          	jalr	-1938(ra) # 8000cfba <_ZN4core4sync6atomic10AtomicBool5store17h7e5dfcadbe49301bE>
    80001754:	a009                	j	80001756 <.LBB1_27+0x54>
                        drop(ctrl);
    80001756:	7566                	ld	a0,120(sp)
    80001758:	0000c097          	auipc	ra,0xc
    8000175c:	2b2080e7          	jalr	690(ra) # 8000da0a <_ZN4core3mem4drop17hc9b81b24632c5a18E>
    80001760:	a009                	j	80001762 <.LBB1_27+0x60>
    80001762:	4575                	li	a0,29
                            data: Some(self.bufs[index].data.lock()),
    80001764:	7582                	ld	a1,32(sp)
    80001766:	08b56163          	bltu	a0,a1,800017e8 <.LBB1_30>
    8000176a:	a009                	j	8000176c <.LBB1_27+0x6a>
    8000176c:	44000513          	li	a0,1088
    80001770:	7582                	ld	a1,32(sp)
    80001772:	02a58533          	mul	a0,a1,a0
    80001776:	7626                	ld	a2,104(sp)
    80001778:	9532                	add	a0,a0,a2
    8000177a:	4e050513          	addi	a0,a0,1248
    8000177e:	00006097          	auipc	ra,0x6
    80001782:	b1a080e7          	jalr	-1254(ra) # 80007298 <_ZN6kernel4lock9sleeplock18SleepLock$LT$T$GT$4lock17hb46c354802470312E>
    80001786:	e82a                	sd	a0,16(sp)
    80001788:	e42e                	sd	a1,8(sp)
    8000178a:	a009                	j	8000178c <.LBB1_27+0x8a>
    8000178c:	6542                	ld	a0,16(sp)
    8000178e:	e5aa                	sd	a0,200(sp)
    80001790:	65a2                	ld	a1,8(sp)
    80001792:	e9ae                	sd	a1,208(sp)
                        return Buf {
    80001794:	7602                	ld	a2,32(sp)
    80001796:	76c6                	ld	a3,112(sp)
    80001798:	e290                	sd	a2,0(a3)
    8000179a:	6766                	ld	a4,88(sp)
    8000179c:	d298                	sw	a4,32(a3)
    8000179e:	7786                	ld	a5,96(sp)
    800017a0:	d2dc                	sw	a5,36(a3)
    800017a2:	6862                	ld	a6,24(sp)
    800017a4:	0106b423          	sd	a6,8(a3)
    800017a8:	68ae                	ld	a7,200(sp)
    800017aa:	62ce                	ld	t0,208(sp)
    800017ac:	0116b823          	sd	a7,16(a3)
    800017b0:	0056bc23          	sd	t0,24(a3)
    }
    800017b4:	a009                	j	800017b6 <.LBB1_27+0xb4>
    800017b6:	60b2                	ld	ra,264(sp)
    800017b8:	6151                	addi	sp,sp,272
    800017ba:	8082                	ret

00000000800017bc <.LBB1_28>:
                    data: Some(self.bufs[index].data.lock())
    800017bc:	00022617          	auipc	a2,0x22
    800017c0:	2f460613          	addi	a2,a2,756 # 80023ab0 <.L__unnamed_18>
    800017c4:	45f9                	li	a1,30
    800017c6:	6506                	ld	a0,64(sp)
    800017c8:	0001f097          	auipc	ra,0x1f
    800017cc:	52e080e7          	jalr	1326(ra) # 80020cf6 <_ZN4core9panicking18panic_bounds_check17ha760e6d8204f3836E>
	...

00000000800017d2 <.LBB1_29>:
                        self.bufs[index].valid.store(false, Ordering::Relaxed);
    800017d2:	00022617          	auipc	a2,0x22
    800017d6:	2f660613          	addi	a2,a2,758 # 80023ac8 <.L__unnamed_19>
    800017da:	45f9                	li	a1,30
    800017dc:	7502                	ld	a0,32(sp)
    800017de:	0001f097          	auipc	ra,0x1f
    800017e2:	518080e7          	jalr	1304(ra) # 80020cf6 <_ZN4core9panicking18panic_bounds_check17ha760e6d8204f3836E>
	...

00000000800017e8 <.LBB1_30>:
                            data: Some(self.bufs[index].data.lock()),
    800017e8:	00022617          	auipc	a2,0x22
    800017ec:	2f860613          	addi	a2,a2,760 # 80023ae0 <.L__unnamed_20>
    800017f0:	45f9                	li	a1,30
    800017f2:	7502                	ld	a0,32(sp)
    800017f4:	0001f097          	auipc	ra,0x1f
    800017f8:	502080e7          	jalr	1282(ra) # 80020cf6 <_ZN4core9panicking18panic_bounds_check17ha760e6d8204f3836E>
	...

Disassembly of section .text._ZN6kernel2fs3bio6Bcache5bread17hdec40b9b354b37baE:

00000000800017fe <_ZN6kernel2fs3bio6Bcache5bread17hdec40b9b354b37baE>:

    /// Get the buf from the cache/disk
    pub fn bread<'a>(&'a self, dev: u32, blockno: u32) -> Buf<'a> {
    800017fe:	711d                	addi	sp,sp,-96
        let mut b = self.bget(dev, blockno);
    80001800:	ec86                	sd	ra,88(sp)
    80001802:	8736                	mv	a4,a3
    80001804:	87b2                	mv	a5,a2
    80001806:	e4ae                	sd	a1,72(sp)
    80001808:	c8b2                	sw	a2,80(sp)
    8000180a:	cab6                	sw	a3,84(sp)
    8000180c:	fc2a                	sd	a0,56(sp)
    8000180e:	f82e                	sd	a1,48(sp)
    80001810:	f43a                	sd	a4,40(sp)
    80001812:	f03e                	sd	a5,32(sp)
    80001814:	00000097          	auipc	ra,0x0
    80001818:	dfa080e7          	jalr	-518(ra) # 8000160e <_ZN6kernel2fs3bio6Bcache4bget17h8beb24e79d66a706E>
    8000181c:	a009                	j	8000181e <_ZN6kernel2fs3bio6Bcache5bread17hdec40b9b354b37baE+0x20>
        if !self.bufs[b.index].valid.load(Ordering::Relaxed) {
    8000181e:	7562                	ld	a0,56(sp)
    80001820:	610c                	ld	a1,0(a0)
    80001822:	4675                	li	a2,29
    80001824:	ec2e                	sd	a1,24(sp)
    80001826:	08b66a63          	bltu	a2,a1,800018ba <.LBB2_13>
    8000182a:	a009                	j	8000182c <_ZN6kernel2fs3bio6Bcache5bread17hdec40b9b354b37baE+0x2e>
    8000182c:	44000513          	li	a0,1088
    80001830:	65e2                	ld	a1,24(sp)
    80001832:	02a58533          	mul	a0,a1,a0
    80001836:	7642                	ld	a2,48(sp)
    80001838:	9532                	add	a0,a0,a2
    8000183a:	48c50513          	addi	a0,a0,1164
    8000183e:	48c50513          	addi	a0,a0,1164
    80001842:	4681                	li	a3,0
    80001844:	04d10323          	sb	a3,70(sp)
    80001848:	85b6                	mv	a1,a3
    8000184a:	0000b097          	auipc	ra,0xb
    8000184e:	6f2080e7          	jalr	1778(ra) # 8000cf3c <_ZN4core4sync6atomic10AtomicBool4load17h0d4c9d106ba3b844E>
    80001852:	e82a                	sd	a0,16(sp)
    80001854:	a009                	j	80001856 <_ZN6kernel2fs3bio6Bcache5bread17hdec40b9b354b37baE+0x58>
    80001856:	6542                	ld	a0,16(sp)
    80001858:	e105                	bnez	a0,80001878 <.LBB2_12+0x1c>
    8000185a:	a009                	j	8000185c <.LBB2_12>

000000008000185c <.LBB2_12>:
            DISK.rw(&mut b, false);
    8000185c:	00054517          	auipc	a0,0x54
    80001860:	7a450513          	addi	a0,a0,1956 # 80056000 <_ZN6kernel6driver11virtio_disk4DISK17h48d93f2a1d70ec15E>
    80001864:	4581                	li	a1,0
    80001866:	7662                	ld	a2,56(sp)
    80001868:	e42e                	sd	a1,8(sp)
    8000186a:	85b2                	mv	a1,a2
    8000186c:	6622                	ld	a2,8(sp)
    8000186e:	00016097          	auipc	ra,0x16
    80001872:	01c080e7          	jalr	28(ra) # 8001788a <_ZN6kernel6driver11virtio_disk91_$LT$impl$u20$kernel..lock..spinlock..Spinlock$LT$kernel..driver..virtio_disk..Disk$GT$$GT$2rw17h8cfa7f5e66c1e3a1E>
    80001876:	a011                	j	8000187a <.LBB2_12+0x1e>
        if !self.bufs[b.index].valid.load(Ordering::Relaxed) {
    80001878:	a835                	j	800018b4 <.LBB2_12+0x58>
            self.bufs[b.index].valid.store(true, Ordering::Relaxed);
    8000187a:	7562                	ld	a0,56(sp)
    8000187c:	610c                	ld	a1,0(a0)
    8000187e:	4675                	li	a2,29
    80001880:	e02e                	sd	a1,0(sp)
    80001882:	04b66763          	bltu	a2,a1,800018d0 <.LBB2_14>
    80001886:	a009                	j	80001888 <.LBB2_12+0x2c>
    80001888:	44000513          	li	a0,1088
    8000188c:	6582                	ld	a1,0(sp)
    8000188e:	02a58533          	mul	a0,a1,a0
    80001892:	7642                	ld	a2,48(sp)
    80001894:	9532                	add	a0,a0,a2
    80001896:	48c50513          	addi	a0,a0,1164
    8000189a:	48c50513          	addi	a0,a0,1164
    8000189e:	4681                	li	a3,0
    800018a0:	04d103a3          	sb	a3,71(sp)
    800018a4:	4585                	li	a1,1
    800018a6:	8636                	mv	a2,a3
    800018a8:	0000b097          	auipc	ra,0xb
    800018ac:	712080e7          	jalr	1810(ra) # 8000cfba <_ZN4core4sync6atomic10AtomicBool5store17h7e5dfcadbe49301bE>
    800018b0:	a009                	j	800018b2 <.LBB2_12+0x56>
        if !self.bufs[b.index].valid.load(Ordering::Relaxed) {
    800018b2:	a009                	j	800018b4 <.LBB2_12+0x58>
        }
        b
    }
    800018b4:	60e6                	ld	ra,88(sp)
    800018b6:	6125                	addi	sp,sp,96
    800018b8:	8082                	ret

00000000800018ba <.LBB2_13>:
        if !self.bufs[b.index].valid.load(Ordering::Relaxed) {
    800018ba:	00022617          	auipc	a2,0x22
    800018be:	2f660613          	addi	a2,a2,758 # 80023bb0 <.L__unnamed_21>
    800018c2:	45f9                	li	a1,30
    800018c4:	6562                	ld	a0,24(sp)
    800018c6:	0001f097          	auipc	ra,0x1f
    800018ca:	430080e7          	jalr	1072(ra) # 80020cf6 <_ZN4core9panicking18panic_bounds_check17ha760e6d8204f3836E>
	...

00000000800018d0 <.LBB2_14>:
            self.bufs[b.index].valid.store(true, Ordering::Relaxed);
    800018d0:	00022617          	auipc	a2,0x22
    800018d4:	2f860613          	addi	a2,a2,760 # 80023bc8 <.L__unnamed_22>
    800018d8:	45f9                	li	a1,30
    800018da:	6502                	ld	a0,0(sp)
    800018dc:	0001f097          	auipc	ra,0x1f
    800018e0:	41a080e7          	jalr	1050(ra) # 80020cf6 <_ZN4core9panicking18panic_bounds_check17ha760e6d8204f3836E>
	...

Disassembly of section .text._ZN6kernel2fs3bio6Bcache6brelse17h469141cf5d3adce7E:

00000000800018e6 <_ZN6kernel2fs3bio6Bcache6brelse17h469141cf5d3adce7E>:

    /// Move an unlocked buf to the head of the most-recently-used list.
    fn brelse(&self, index: usize) {
    800018e6:	7179                	addi	sp,sp,-48
    800018e8:	f406                	sd	ra,40(sp)
    800018ea:	ec2a                	sd	a0,24(sp)
    800018ec:	f02e                	sd	a1,32(sp)
        self.ctrl.acquire().move_if_no_ref(index);
    800018ee:	e42e                	sd	a1,8(sp)
    800018f0:	00001097          	auipc	ra,0x1
    800018f4:	c50080e7          	jalr	-944(ra) # 80002540 <_ZN6kernel4lock8spinlock17Spinlock$LT$T$GT$7acquire17h81cc64e5f1a97b0cE>
    800018f8:	e82a                	sd	a0,16(sp)
    800018fa:	a009                	j	800018fc <_ZN6kernel2fs3bio6Bcache6brelse17h469141cf5d3adce7E+0x16>
    800018fc:	0808                	addi	a0,sp,16
    800018fe:	00002097          	auipc	ra,0x2
    80001902:	0dc080e7          	jalr	220(ra) # 800039da <_ZN93_$LT$kernel..lock..spinlock..SpinlockGuard$LT$T$GT$$u20$as$u20$core..ops..deref..DerefMut$GT$9deref_mut17h7997af61478b5d27E>
    80001906:	e02a                	sd	a0,0(sp)
    80001908:	a009                	j	8000190a <_ZN6kernel2fs3bio6Bcache6brelse17h469141cf5d3adce7E+0x24>
    8000190a:	6502                	ld	a0,0(sp)
    8000190c:	65a2                	ld	a1,8(sp)
    8000190e:	00000097          	auipc	ra,0x0
    80001912:	340080e7          	jalr	832(ra) # 80001c4e <_ZN6kernel2fs3bio6BufLru14move_if_no_ref17h21abf3790891695dE>
    80001916:	a009                	j	80001918 <_ZN6kernel2fs3bio6Bcache6brelse17h469141cf5d3adce7E+0x32>
    80001918:	0808                	addi	a0,sp,16
    8000191a:	00005097          	auipc	ra,0x5
    8000191e:	0a2080e7          	jalr	162(ra) # 800069bc <_ZN4core3ptr89drop_in_place$LT$kernel..lock..spinlock..SpinlockGuard$LT$kernel..fs..bio..BufLru$GT$$GT$17heb8f06842278fadcE>
    80001922:	a009                	j	80001924 <_ZN6kernel2fs3bio6Bcache6brelse17h469141cf5d3adce7E+0x3e>
    }
    80001924:	70a2                	ld	ra,40(sp)
    80001926:	6145                	addi	sp,sp,48
    80001928:	8082                	ret

Disassembly of section .text._ZN6kernel2fs3bio3Buf12read_blockno17h273c260285cdf6bdE:

000000008000192a <_ZN6kernel2fs3bio3Buf12read_blockno17h273c260285cdf6bdE>:
    /// Introduced to let the sleeplock guard drop before the whole struct.
    data: Option<SleepLockGuard<'a, BufData>>,
}

impl<'a> Buf<'a> {
    pub fn read_blockno(&self) -> u32 {
    8000192a:	1141                	addi	sp,sp,-16
    8000192c:	e42a                	sd	a0,8(sp)
        self.blockno
    }
    8000192e:	5148                	lw	a0,36(a0)
    80001930:	0141                	addi	sp,sp,16
    80001932:	8082                	ret

Disassembly of section .text._ZN6kernel2fs3bio3Buf6bwrite17he92a25be232d779bE:

0000000080001934 <_ZN6kernel2fs3bio3Buf6bwrite17he92a25be232d779bE>:

    pub fn bwrite(&mut self) {
    80001934:	1101                	addi	sp,sp,-32
    80001936:	ec06                	sd	ra,24(sp)
    80001938:	e82a                	sd	a0,16(sp)

000000008000193a <.LBB5_2>:
        DISK.rw(self, true);
    8000193a:	00054597          	auipc	a1,0x54
    8000193e:	6c658593          	addi	a1,a1,1734 # 80056000 <_ZN6kernel6driver11virtio_disk4DISK17h48d93f2a1d70ec15E>
    80001942:	4605                	li	a2,1
    80001944:	e42a                	sd	a0,8(sp)
    80001946:	852e                	mv	a0,a1
    80001948:	65a2                	ld	a1,8(sp)
    8000194a:	00016097          	auipc	ra,0x16
    8000194e:	f40080e7          	jalr	-192(ra) # 8001788a <_ZN6kernel6driver11virtio_disk91_$LT$impl$u20$kernel..lock..spinlock..Spinlock$LT$kernel..driver..virtio_disk..Disk$GT$$GT$2rw17h8cfa7f5e66c1e3a1E>
    80001952:	a009                	j	80001954 <.LBB5_2+0x1a>
    }
    80001954:	60e2                	ld	ra,24(sp)
    80001956:	6105                	addi	sp,sp,32
    80001958:	8082                	ret

Disassembly of section .text._ZN6kernel2fs3bio3Buf8raw_data17h93ab240d3554e1e5E:

000000008000195a <_ZN6kernel2fs3bio3Buf8raw_data17h93ab240d3554e1e5E>:

    /// Gives out a raw const pointer at the buf data. 
    pub fn raw_data(&self) -> *const BufData {
    8000195a:	7179                	addi	sp,sp,-48
    8000195c:	f406                	sd	ra,40(sp)
    8000195e:	ec2a                	sd	a0,24(sp)
        let guard = self.data.as_ref().unwrap();
    80001960:	0541                	addi	a0,a0,16
    80001962:	00017097          	auipc	ra,0x17
    80001966:	f82080e7          	jalr	-126(ra) # 800188e4 <_ZN4core6option15Option$LT$T$GT$6as_ref17h830d3b27dc38f66cE>
    8000196a:	e82a                	sd	a0,16(sp)
    8000196c:	a009                	j	8000196e <.LBB6_4>

000000008000196e <.LBB6_4>:
    8000196e:	00022597          	auipc	a1,0x22
    80001972:	27258593          	addi	a1,a1,626 # 80023be0 <.L__unnamed_23>
    80001976:	6542                	ld	a0,16(sp)
    80001978:	00017097          	auipc	ra,0x17
    8000197c:	2c8080e7          	jalr	712(ra) # 80018c40 <_ZN4core6option15Option$LT$T$GT$6unwrap17h5dd6082ce602d81dE>
    80001980:	85aa                	mv	a1,a0
    80001982:	f02a                	sd	a0,32(sp)
    80001984:	e42e                	sd	a1,8(sp)
    80001986:	a009                	j	80001988 <.LBB6_4+0x1a>
        guard.deref()
    80001988:	6522                	ld	a0,8(sp)
    8000198a:	00006097          	auipc	ra,0x6
    8000198e:	acc080e7          	jalr	-1332(ra) # 80007456 <_ZN92_$LT$kernel..lock..sleeplock..SleepLockGuard$LT$T$GT$$u20$as$u20$core..ops..deref..Deref$GT$5deref17h22429bca59620296E>
    80001992:	e02a                	sd	a0,0(sp)
    80001994:	a009                	j	80001996 <.LBB6_4+0x28>
    }
    80001996:	6502                	ld	a0,0(sp)
    80001998:	70a2                	ld	ra,40(sp)
    8000199a:	6145                	addi	sp,sp,48
    8000199c:	8082                	ret

Disassembly of section .text._ZN6kernel2fs3bio3Buf12raw_data_mut17h64f90e2f5e52aeddE:

000000008000199e <_ZN6kernel2fs3bio3Buf12raw_data_mut17h64f90e2f5e52aeddE>:

    /// Gives out a raw mut pointer at the buf data. 
    pub fn raw_data_mut(&mut self) -> *mut BufData {
    8000199e:	7179                	addi	sp,sp,-48
    800019a0:	f406                	sd	ra,40(sp)
    800019a2:	ec2a                	sd	a0,24(sp)
        let guard = self.data.as_mut().unwrap();
    800019a4:	0541                	addi	a0,a0,16
    800019a6:	00017097          	auipc	ra,0x17
    800019aa:	e62080e7          	jalr	-414(ra) # 80018808 <_ZN4core6option15Option$LT$T$GT$6as_mut17hd821ca3c2937cf56E>
    800019ae:	e82a                	sd	a0,16(sp)
    800019b0:	a009                	j	800019b2 <.LBB7_4>

00000000800019b2 <.LBB7_4>:
    800019b2:	00022597          	auipc	a1,0x22
    800019b6:	24658593          	addi	a1,a1,582 # 80023bf8 <.L__unnamed_24>
    800019ba:	6542                	ld	a0,16(sp)
    800019bc:	00017097          	auipc	ra,0x17
    800019c0:	4a6080e7          	jalr	1190(ra) # 80018e62 <_ZN4core6option15Option$LT$T$GT$6unwrap17hdad3629ea4723373E>
    800019c4:	85aa                	mv	a1,a0
    800019c6:	f02a                	sd	a0,32(sp)
    800019c8:	e42e                	sd	a1,8(sp)
    800019ca:	a009                	j	800019cc <.LBB7_4+0x1a>
        guard.deref_mut()
    800019cc:	6522                	ld	a0,8(sp)
    800019ce:	00006097          	auipc	ra,0x6
    800019d2:	aa6080e7          	jalr	-1370(ra) # 80007474 <_ZN95_$LT$kernel..lock..sleeplock..SleepLockGuard$LT$T$GT$$u20$as$u20$core..ops..deref..DerefMut$GT$9deref_mut17hf740b8f97f1862b1E>
    800019d6:	e02a                	sd	a0,0(sp)
    800019d8:	a009                	j	800019da <.LBB7_4+0x28>
    }
    800019da:	6502                	ld	a0,0(sp)
    800019dc:	70a2                	ld	ra,40(sp)
    800019de:	6145                	addi	sp,sp,48
    800019e0:	8082                	ret

Disassembly of section .text._ZN6kernel2fs3bio3Buf3pin17hd9cbcf2459e86140E:

00000000800019e2 <_ZN6kernel2fs3bio3Buf3pin17hd9cbcf2459e86140E>:

    /// Pin the buf.
    /// SAFETY: it should be definitly safe.
    ///     Because the current refcnt >= 1, so the rc_ptr is valid.
    pub unsafe fn pin(&self) {
    800019e2:	1101                	addi	sp,sp,-32
    800019e4:	e82a                	sd	a0,16(sp)
        let rc = *self.rc_ptr;
    800019e6:	650c                	ld	a1,8(a0)
    800019e8:	618c                	ld	a1,0(a1)
    800019ea:	ec2e                	sd	a1,24(sp)
        *self.rc_ptr = rc + 1;
    800019ec:	00158613          	addi	a2,a1,1
    800019f0:	e42a                	sd	a0,8(sp)
    800019f2:	e032                	sd	a2,0(sp)
    800019f4:	00b66963          	bltu	a2,a1,80001a06 <.LBB8_3>
    800019f8:	a009                	j	800019fa <_ZN6kernel2fs3bio3Buf3pin17hd9cbcf2459e86140E+0x18>
    800019fa:	6522                	ld	a0,8(sp)
    800019fc:	650c                	ld	a1,8(a0)
    800019fe:	6602                	ld	a2,0(sp)
    80001a00:	e190                	sd	a2,0(a1)
    }
    80001a02:	6105                	addi	sp,sp,32
    80001a04:	8082                	ret

0000000080001a06 <.LBB8_3>:
        *self.rc_ptr = rc + 1;
    80001a06:	00022517          	auipc	a0,0x22
    80001a0a:	05a50513          	addi	a0,a0,90 # 80023a60 <str.1>

0000000080001a0e <.LBB8_4>:
    80001a0e:	00022617          	auipc	a2,0x22
    80001a12:	20260613          	addi	a2,a2,514 # 80023c10 <.L__unnamed_25>
    80001a16:	45f1                	li	a1,28
    80001a18:	0001f097          	auipc	ra,0x1f
    80001a1c:	2b2080e7          	jalr	690(ra) # 80020cca <_ZN4core9panicking5panic17h4214b4eed8d3f37fE>
	...

Disassembly of section .text._ZN6kernel2fs3bio3Buf5unpin17h1d586dc6aecebdeaE:

0000000080001a22 <_ZN6kernel2fs3bio3Buf5unpin17h1d586dc6aecebdeaE>:

    /// Unpin the buf.
    /// SAFETY: it should be called matching pin.
    pub unsafe fn unpin(&self) {
    80001a22:	7179                	addi	sp,sp,-48
    80001a24:	f02a                	sd	a0,32(sp)
        let rc = *self.rc_ptr;
    80001a26:	650c                	ld	a1,8(a0)
    80001a28:	618c                	ld	a1,0(a1)
    80001a2a:	f42e                	sd	a1,40(sp)
    80001a2c:	4605                	li	a2,1
        if rc <= 1 {
    80001a2e:	ec2a                	sd	a0,24(sp)
    80001a30:	e82e                	sd	a1,16(sp)
    80001a32:	02b66163          	bltu	a2,a1,80001a54 <.LBB9_6+0x14>
    80001a36:	a009                	j	80001a38 <.LBB9_5>

0000000080001a38 <.LBB9_5>:
            panic!("buf unpin not match");
    80001a38:	00022517          	auipc	a0,0x22
    80001a3c:	1f050513          	addi	a0,a0,496 # 80023c28 <.L__unnamed_26>

0000000080001a40 <.LBB9_6>:
    80001a40:	00022617          	auipc	a2,0x22
    80001a44:	20060613          	addi	a2,a2,512 # 80023c40 <.L__unnamed_27>
    80001a48:	45cd                	li	a1,19
    80001a4a:	0001f097          	auipc	ra,0x1f
    80001a4e:	280080e7          	jalr	640(ra) # 80020cca <_ZN4core9panicking5panic17h4214b4eed8d3f37fE>
    80001a52:	0000                	unimp
        }
        *self.rc_ptr = rc - 1;
    80001a54:	6542                	ld	a0,16(sp)
    80001a56:	fff50593          	addi	a1,a0,-1
    80001a5a:	e42e                	sd	a1,8(sp)
    80001a5c:	00b56963          	bltu	a0,a1,80001a6e <.LBB9_7>
    80001a60:	a009                	j	80001a62 <.LBB9_6+0x22>
    80001a62:	6562                	ld	a0,24(sp)
    80001a64:	650c                	ld	a1,8(a0)
    80001a66:	6622                	ld	a2,8(sp)
    80001a68:	e190                	sd	a2,0(a1)
    }
    80001a6a:	6145                	addi	sp,sp,48
    80001a6c:	8082                	ret

0000000080001a6e <.LBB9_7>:
        *self.rc_ptr = rc - 1;
    80001a6e:	00022517          	auipc	a0,0x22
    80001a72:	ea250513          	addi	a0,a0,-350 # 80023910 <str.0>

0000000080001a76 <.LBB9_8>:
    80001a76:	00022617          	auipc	a2,0x22
    80001a7a:	1e260613          	addi	a2,a2,482 # 80023c58 <.L__unnamed_28>
    80001a7e:	02100593          	li	a1,33
    80001a82:	0001f097          	auipc	ra,0x1f
    80001a86:	248080e7          	jalr	584(ra) # 80020cca <_ZN4core9panicking5panic17h4214b4eed8d3f37fE>
	...

Disassembly of section .text._ZN6kernel2fs3bio6BufLru11find_cached17hd82557e825fdfaf6E:

0000000080001a8c <_ZN6kernel2fs3bio6BufLru11find_cached17hd82557e825fdfaf6E>:
        }
    }

    /// Find if the requested block is cached.
    /// Return its index and incr the refcnt if found.
    fn find_cached(&mut self, dev: u32, blockno: u32) -> Option<(usize, *mut usize)> {
    80001a8c:	7119                	addi	sp,sp,-128
    80001a8e:	fc86                	sd	ra,120(sp)
    80001a90:	8736                	mv	a4,a3
    80001a92:	87b2                	mv	a5,a2
    80001a94:	f0ae                	sd	a1,96(sp)
    80001a96:	d4b2                	sw	a2,104(sp)
    80001a98:	d6b6                	sw	a3,108(sp)
        let mut b = self.head;
    80001a9a:	4b05b583          	ld	a1,1200(a1)
    80001a9e:	e0ae                	sd	a1,64(sp)
        while !b.is_null() {
    80001aa0:	fc2a                	sd	a0,56(sp)
    80001aa2:	f83a                	sd	a4,48(sp)
    80001aa4:	f43e                	sd	a5,40(sp)
    80001aa6:	a009                	j	80001aa8 <_ZN6kernel2fs3bio6BufLru11find_cached17hd82557e825fdfaf6E+0x1c>
    80001aa8:	6506                	ld	a0,64(sp)
    80001aaa:	00015097          	auipc	ra,0x15
    80001aae:	fbe080e7          	jalr	-66(ra) # 80016a68 <_ZN4core3ptr7mut_ptr31_$LT$impl$u20$$BP$mut$u20$T$GT$7is_null17he914eebbf4613d1eE>
    80001ab2:	f02a                	sd	a0,32(sp)
    80001ab4:	a009                	j	80001ab6 <_ZN6kernel2fs3bio6BufLru11find_cached17hd82557e825fdfaf6E+0x2a>
    80001ab6:	4501                	li	a0,0
    80001ab8:	7582                	ld	a1,32(sp)
    80001aba:	00a58763          	beq	a1,a0,80001ac8 <_ZN6kernel2fs3bio6BufLru11find_cached17hd82557e825fdfaf6E+0x3c>
    80001abe:	a009                	j	80001ac0 <_ZN6kernel2fs3bio6BufLru11find_cached17hd82557e825fdfaf6E+0x34>
    80001ac0:	4501                	li	a0,0
                bref.refcnt += 1;
                return Some((bref.index, &mut bref.refcnt));
            }
            b = bref.next;
        }
        None
    80001ac2:	75e2                	ld	a1,56(sp)
    80001ac4:	e188                	sd	a0,0(a1)
    }
    80001ac6:	a869                	j	80001b60 <.LBB10_16+0x8a>
            let bref = unsafe { b.as_mut().unwrap() };
    80001ac8:	6506                	ld	a0,64(sp)
    80001aca:	00015097          	auipc	ra,0x15
    80001ace:	f50080e7          	jalr	-176(ra) # 80016a1a <_ZN4core3ptr7mut_ptr31_$LT$impl$u20$$BP$mut$u20$T$GT$6as_mut17h66750c1d0d614d42E>
    80001ad2:	ec2a                	sd	a0,24(sp)
    80001ad4:	a009                	j	80001ad6 <.LBB10_16>

0000000080001ad6 <.LBB10_16>:
    80001ad6:	00022597          	auipc	a1,0x22
    80001ada:	19a58593          	addi	a1,a1,410 # 80023c70 <.L__unnamed_29>
    80001ade:	6562                	ld	a0,24(sp)
    80001ae0:	00017097          	auipc	ra,0x17
    80001ae4:	1cc080e7          	jalr	460(ra) # 80018cac <_ZN4core6option15Option$LT$T$GT$6unwrap17h7d0483f37b144d32E>
    80001ae8:	e82a                	sd	a0,16(sp)
    80001aea:	a009                	j	80001aec <.LBB10_16+0x16>
    80001aec:	6542                	ld	a0,16(sp)
    80001aee:	f8aa                	sd	a0,112(sp)
            if bref.dev == dev && bref.blockno == blockno {
    80001af0:	510c                	lw	a1,32(a0)
    80001af2:	7622                	ld	a2,40(sp)
    80001af4:	0006069b          	sext.w	a3,a2
    80001af8:	00d58b63          	beq	a1,a3,80001b0e <.LBB10_16+0x38>
    80001afc:	a029                	j	80001b06 <.LBB10_16+0x30>
    80001afe:	4505                	li	a0,1
    80001b00:	04a107a3          	sb	a0,79(sp)
    80001b04:	a829                	j	80001b1e <.LBB10_16+0x48>
    80001b06:	4501                	li	a0,0
    80001b08:	04a107a3          	sb	a0,79(sp)
    80001b0c:	a809                	j	80001b1e <.LBB10_16+0x48>
    80001b0e:	6542                	ld	a0,16(sp)
    80001b10:	514c                	lw	a1,36(a0)
    80001b12:	7642                	ld	a2,48(sp)
    80001b14:	0006069b          	sext.w	a3,a2
    80001b18:	fed583e3          	beq	a1,a3,80001afe <.LBB10_16+0x28>
    80001b1c:	b7ed                	j	80001b06 <.LBB10_16+0x30>
    80001b1e:	04f14503          	lbu	a0,79(sp)
    80001b22:	8905                	andi	a0,a0,1
    80001b24:	4581                	li	a1,0
    80001b26:	00b50b63          	beq	a0,a1,80001b3c <.LBB10_16+0x66>
    80001b2a:	a009                	j	80001b2c <.LBB10_16+0x56>
                bref.refcnt += 1;
    80001b2c:	6542                	ld	a0,16(sp)
    80001b2e:	690c                	ld	a1,16(a0)
    80001b30:	00158613          	addi	a2,a1,1
    80001b34:	e432                	sd	a2,8(sp)
    80001b36:	02b66863          	bltu	a2,a1,80001b66 <.LBB10_17>
    80001b3a:	a029                	j	80001b44 <.LBB10_16+0x6e>
            b = bref.next;
    80001b3c:	6542                	ld	a0,16(sp)
    80001b3e:	650c                	ld	a1,8(a0)
    80001b40:	e0ae                	sd	a1,64(sp)
        while !b.is_null() {
    80001b42:	b79d                	j	80001aa8 <_ZN6kernel2fs3bio6BufLru11find_cached17hd82557e825fdfaf6E+0x1c>
                bref.refcnt += 1;
    80001b44:	6542                	ld	a0,16(sp)
    80001b46:	01050593          	addi	a1,a0,16
    80001b4a:	6622                	ld	a2,8(sp)
    80001b4c:	e910                	sd	a2,16(a0)
                return Some((bref.index, &mut bref.refcnt));
    80001b4e:	6d14                	ld	a3,24(a0)
    80001b50:	e8b6                	sd	a3,80(sp)
    80001b52:	ecae                	sd	a1,88(sp)
    80001b54:	7762                	ld	a4,56(sp)
    80001b56:	e714                	sd	a3,8(a4)
    80001b58:	eb0c                	sd	a1,16(a4)
    80001b5a:	4585                	li	a1,1
    80001b5c:	e30c                	sd	a1,0(a4)
    }
    80001b5e:	a009                	j	80001b60 <.LBB10_16+0x8a>
    80001b60:	70e6                	ld	ra,120(sp)
    80001b62:	6109                	addi	sp,sp,128
    80001b64:	8082                	ret

0000000080001b66 <.LBB10_17>:
                bref.refcnt += 1;
    80001b66:	00022517          	auipc	a0,0x22
    80001b6a:	efa50513          	addi	a0,a0,-262 # 80023a60 <str.1>

0000000080001b6e <.LBB10_18>:
    80001b6e:	00022617          	auipc	a2,0x22
    80001b72:	11a60613          	addi	a2,a2,282 # 80023c88 <.L__unnamed_30>
    80001b76:	45f1                	li	a1,28
    80001b78:	0001f097          	auipc	ra,0x1f
    80001b7c:	152080e7          	jalr	338(ra) # 80020cca <_ZN4core9panicking5panic17h4214b4eed8d3f37fE>
	...

Disassembly of section .text._ZN6kernel2fs3bio6BufLru7recycle17h85a1229316c63c5eE:

0000000080001b82 <_ZN6kernel2fs3bio6BufLru7recycle17h85a1229316c63c5eE>:

    /// Recycle an unused buffer from the tail.
    /// Return its index if found.
    fn recycle(&mut self, dev: u32, blockno: u32) -> Option<(usize, *mut usize)> {
    80001b82:	7159                	addi	sp,sp,-112
    80001b84:	f486                	sd	ra,104(sp)
    80001b86:	8736                	mv	a4,a3
    80001b88:	87b2                	mv	a5,a2
    80001b8a:	e8ae                	sd	a1,80(sp)
    80001b8c:	ccb2                	sw	a2,88(sp)
    80001b8e:	ceb6                	sw	a3,92(sp)
        let mut b = self.tail;
    80001b90:	4b85b583          	ld	a1,1208(a1)
    80001b94:	fc2e                	sd	a1,56(sp)
        while !b.is_null() {
    80001b96:	f82a                	sd	a0,48(sp)
    80001b98:	f43a                	sd	a4,40(sp)
    80001b9a:	f03e                	sd	a5,32(sp)
    80001b9c:	a009                	j	80001b9e <_ZN6kernel2fs3bio6BufLru7recycle17h85a1229316c63c5eE+0x1c>
    80001b9e:	7562                	ld	a0,56(sp)
    80001ba0:	00015097          	auipc	ra,0x15
    80001ba4:	ec8080e7          	jalr	-312(ra) # 80016a68 <_ZN4core3ptr7mut_ptr31_$LT$impl$u20$$BP$mut$u20$T$GT$7is_null17he914eebbf4613d1eE>
    80001ba8:	ec2a                	sd	a0,24(sp)
    80001baa:	a009                	j	80001bac <_ZN6kernel2fs3bio6BufLru7recycle17h85a1229316c63c5eE+0x2a>
    80001bac:	4501                	li	a0,0
    80001bae:	65e2                	ld	a1,24(sp)
    80001bb0:	00a58763          	beq	a1,a0,80001bbe <_ZN6kernel2fs3bio6BufLru7recycle17h85a1229316c63c5eE+0x3c>
    80001bb4:	a009                	j	80001bb6 <_ZN6kernel2fs3bio6BufLru7recycle17h85a1229316c63c5eE+0x34>
    80001bb6:	4501                	li	a0,0
                bref.refcnt += 1;
                return Some((bref.index, &mut bref.refcnt));
            }
            b = bref.prev;
        }
        None
    80001bb8:	75c2                	ld	a1,48(sp)
    80001bba:	e188                	sd	a0,0(a1)
    }
    80001bbc:	a885                	j	80001c2c <.LBB11_12+0x60>
            let bref = unsafe { b.as_mut().unwrap() };
    80001bbe:	7562                	ld	a0,56(sp)
    80001bc0:	00015097          	auipc	ra,0x15
    80001bc4:	e5a080e7          	jalr	-422(ra) # 80016a1a <_ZN4core3ptr7mut_ptr31_$LT$impl$u20$$BP$mut$u20$T$GT$6as_mut17h66750c1d0d614d42E>
    80001bc8:	e82a                	sd	a0,16(sp)
    80001bca:	a009                	j	80001bcc <.LBB11_12>

0000000080001bcc <.LBB11_12>:
    80001bcc:	00022597          	auipc	a1,0x22
    80001bd0:	0d458593          	addi	a1,a1,212 # 80023ca0 <.L__unnamed_31>
    80001bd4:	6542                	ld	a0,16(sp)
    80001bd6:	00017097          	auipc	ra,0x17
    80001bda:	0d6080e7          	jalr	214(ra) # 80018cac <_ZN4core6option15Option$LT$T$GT$6unwrap17h7d0483f37b144d32E>
    80001bde:	e42a                	sd	a0,8(sp)
    80001be0:	a009                	j	80001be2 <.LBB11_12+0x16>
    80001be2:	6522                	ld	a0,8(sp)
    80001be4:	f0aa                	sd	a0,96(sp)
            if bref.refcnt == 0 {
    80001be6:	690c                	ld	a1,16(a0)
    80001be8:	4601                	li	a2,0
    80001bea:	00c59f63          	bne	a1,a2,80001c08 <.LBB11_12+0x3c>
    80001bee:	a009                	j	80001bf0 <.LBB11_12+0x24>
                bref.dev = dev;
    80001bf0:	7502                	ld	a0,32(sp)
    80001bf2:	65a2                	ld	a1,8(sp)
    80001bf4:	d188                	sw	a0,32(a1)
                bref.blockno = blockno;
    80001bf6:	7622                	ld	a2,40(sp)
    80001bf8:	d1d0                	sw	a2,36(a1)
                bref.refcnt += 1;
    80001bfa:	6994                	ld	a3,16(a1)
    80001bfc:	00168713          	addi	a4,a3,1
    80001c00:	e03a                	sd	a4,0(sp)
    80001c02:	02d76863          	bltu	a4,a3,80001c32 <.LBB11_13>
    80001c06:	a029                	j	80001c10 <.LBB11_12+0x44>
            b = bref.prev;
    80001c08:	6522                	ld	a0,8(sp)
    80001c0a:	610c                	ld	a1,0(a0)
    80001c0c:	fc2e                	sd	a1,56(sp)
        while !b.is_null() {
    80001c0e:	bf41                	j	80001b9e <_ZN6kernel2fs3bio6BufLru7recycle17h85a1229316c63c5eE+0x1c>
                bref.refcnt += 1;
    80001c10:	6522                	ld	a0,8(sp)
    80001c12:	01050593          	addi	a1,a0,16
    80001c16:	6602                	ld	a2,0(sp)
    80001c18:	e910                	sd	a2,16(a0)
                return Some((bref.index, &mut bref.refcnt));
    80001c1a:	6d14                	ld	a3,24(a0)
    80001c1c:	e0b6                	sd	a3,64(sp)
    80001c1e:	e4ae                	sd	a1,72(sp)
    80001c20:	7742                	ld	a4,48(sp)
    80001c22:	e714                	sd	a3,8(a4)
    80001c24:	eb0c                	sd	a1,16(a4)
    80001c26:	4585                	li	a1,1
    80001c28:	e30c                	sd	a1,0(a4)
    }
    80001c2a:	a009                	j	80001c2c <.LBB11_12+0x60>
    80001c2c:	70a6                	ld	ra,104(sp)
    80001c2e:	6165                	addi	sp,sp,112
    80001c30:	8082                	ret

0000000080001c32 <.LBB11_13>:
                bref.refcnt += 1;
    80001c32:	00022517          	auipc	a0,0x22
    80001c36:	e2e50513          	addi	a0,a0,-466 # 80023a60 <str.1>

0000000080001c3a <.LBB11_14>:
    80001c3a:	00022617          	auipc	a2,0x22
    80001c3e:	07e60613          	addi	a2,a2,126 # 80023cb8 <.L__unnamed_32>
    80001c42:	45f1                	li	a1,28
    80001c44:	0001f097          	auipc	ra,0x1f
    80001c48:	086080e7          	jalr	134(ra) # 80020cca <_ZN4core9panicking5panic17h4214b4eed8d3f37fE>
	...

Disassembly of section .text._ZN6kernel2fs3bio6BufLru14move_if_no_ref17h21abf3790891695dE:

0000000080001c4e <_ZN6kernel2fs3bio6BufLru14move_if_no_ref17h21abf3790891695dE>:

    /// Move an entry to the head if no live ref.
    fn move_if_no_ref(&mut self, index: usize) {
    80001c4e:	7171                	addi	sp,sp,-176
    80001c50:	f506                	sd	ra,168(sp)
    80001c52:	ed2a                	sd	a0,152(sp)
    80001c54:	f12e                	sd	a1,160(sp)
    80001c56:	4675                	li	a2,29
        let b = &mut self.inner[index];
    80001c58:	f0ae                	sd	a1,96(sp)
    80001c5a:	ecaa                	sd	a0,88(sp)
    80001c5c:	16b66063          	bltu	a2,a1,80001dbc <.LBB12_29>
    80001c60:	a009                	j	80001c62 <_ZN6kernel2fs3bio6BufLru14move_if_no_ref17h21abf3790891695dE+0x14>
    80001c62:	02800513          	li	a0,40
    80001c66:	7586                	ld	a1,96(sp)
    80001c68:	02a58533          	mul	a0,a1,a0
    80001c6c:	6666                	ld	a2,88(sp)
    80001c6e:	9532                	add	a0,a0,a2
    80001c70:	f8aa                	sd	a0,112(sp)
        b.refcnt -= 1;
    80001c72:	6908                	ld	a0,16(a0)
    80001c74:	fff50693          	addi	a3,a0,-1
    80001c78:	e8b6                	sd	a3,80(sp)
    80001c7a:	14d56c63          	bltu	a0,a3,80001dd2 <.LBB12_30>
    80001c7e:	a009                	j	80001c80 <_ZN6kernel2fs3bio6BufLru14move_if_no_ref17h21abf3790891695dE+0x32>
    80001c80:	7546                	ld	a0,112(sp)
    80001c82:	65c6                	ld	a1,80(sp)
    80001c84:	e90c                	sd	a1,16(a0)
        if b.refcnt == 0 && !ptr::eq(self.head, b) {
    80001c86:	7546                	ld	a0,112(sp)
    80001c88:	6908                	ld	a0,16(a0)
    80001c8a:	4601                	li	a2,0
    80001c8c:	00c50b63          	beq	a0,a2,80001ca2 <_ZN6kernel2fs3bio6BufLru14move_if_no_ref17h21abf3790891695dE+0x54>
    80001c90:	a029                	j	80001c9a <_ZN6kernel2fs3bio6BufLru14move_if_no_ref17h21abf3790891695dE+0x4c>
    80001c92:	4505                	li	a0,1
    80001c94:	06a10f23          	sb	a0,126(sp)
    80001c98:	a839                	j	80001cb6 <_ZN6kernel2fs3bio6BufLru14move_if_no_ref17h21abf3790891695dE+0x68>
    80001c9a:	4501                	li	a0,0
    80001c9c:	06a10f23          	sb	a0,126(sp)
    80001ca0:	a819                	j	80001cb6 <_ZN6kernel2fs3bio6BufLru14move_if_no_ref17h21abf3790891695dE+0x68>
    80001ca2:	6566                	ld	a0,88(sp)
    80001ca4:	4b053503          	ld	a0,1200(a0)
    80001ca8:	75c6                	ld	a1,112(sp)
    80001caa:	0000f097          	auipc	ra,0xf
    80001cae:	cb2080e7          	jalr	-846(ra) # 8001095c <_ZN4core3ptr2eq17h1bbcd7553e7a119fE>
    80001cb2:	e4aa                	sd	a0,72(sp)
    80001cb4:	a031                	j	80001cc0 <_ZN6kernel2fs3bio6BufLru14move_if_no_ref17h21abf3790891695dE+0x72>
    80001cb6:	07e14503          	lbu	a0,126(sp)
    80001cba:	8905                	andi	a0,a0,1
    80001cbc:	e519                	bnez	a0,80001cca <_ZN6kernel2fs3bio6BufLru14move_if_no_ref17h21abf3790891695dE+0x7c>
    80001cbe:	a005                	j	80001cde <_ZN6kernel2fs3bio6BufLru14move_if_no_ref17h21abf3790891695dE+0x90>
    80001cc0:	4501                	li	a0,0
    80001cc2:	65a6                	ld	a1,72(sp)
    80001cc4:	fca587e3          	beq	a1,a0,80001c92 <_ZN6kernel2fs3bio6BufLru14move_if_no_ref17h21abf3790891695dE+0x44>
    80001cc8:	bfc9                	j	80001c9a <_ZN6kernel2fs3bio6BufLru14move_if_no_ref17h21abf3790891695dE+0x4c>
            // forward the tail if b is at the tail
            // b may be the only entry in the lru list
            if ptr::eq(self.tail, b) && !b.prev.is_null() {
    80001cca:	6566                	ld	a0,88(sp)
    80001ccc:	4b853503          	ld	a0,1208(a0)
    80001cd0:	75c6                	ld	a1,112(sp)
    80001cd2:	0000f097          	auipc	ra,0xf
    80001cd6:	c8a080e7          	jalr	-886(ra) # 8001095c <_ZN4core3ptr2eq17h1bbcd7553e7a119fE>
    80001cda:	e0aa                	sd	a0,64(sp)
    80001cdc:	a03d                	j	80001d0a <_ZN6kernel2fs3bio6BufLru14move_if_no_ref17h21abf3790891695dE+0xbc>
        if b.refcnt == 0 && !ptr::eq(self.head, b) {
    80001cde:	a8e1                	j	80001db6 <_ZN6kernel2fs3bio6BufLru14move_if_no_ref17h21abf3790891695dE+0x168>
    80001ce0:	4505                	li	a0,1
            if ptr::eq(self.tail, b) && !b.prev.is_null() {
    80001ce2:	06a10fa3          	sb	a0,127(sp)
    80001ce6:	a829                	j	80001d00 <_ZN6kernel2fs3bio6BufLru14move_if_no_ref17h21abf3790891695dE+0xb2>
    80001ce8:	4501                	li	a0,0
    80001cea:	06a10fa3          	sb	a0,127(sp)
    80001cee:	a809                	j	80001d00 <_ZN6kernel2fs3bio6BufLru14move_if_no_ref17h21abf3790891695dE+0xb2>
    80001cf0:	7546                	ld	a0,112(sp)
    80001cf2:	6108                	ld	a0,0(a0)
    80001cf4:	00015097          	auipc	ra,0x15
    80001cf8:	d74080e7          	jalr	-652(ra) # 80016a68 <_ZN4core3ptr7mut_ptr31_$LT$impl$u20$$BP$mut$u20$T$GT$7is_null17he914eebbf4613d1eE>
    80001cfc:	fc2a                	sd	a0,56(sp)
    80001cfe:	a809                	j	80001d10 <_ZN6kernel2fs3bio6BufLru14move_if_no_ref17h21abf3790891695dE+0xc2>
    80001d00:	07f14503          	lbu	a0,127(sp)
    80001d04:	8905                	andi	a0,a0,1
    80001d06:	e911                	bnez	a0,80001d1a <_ZN6kernel2fs3bio6BufLru14move_if_no_ref17h21abf3790891695dE+0xcc>
    80001d08:	a839                	j	80001d26 <_ZN6kernel2fs3bio6BufLru14move_if_no_ref17h21abf3790891695dE+0xd8>
    80001d0a:	6506                	ld	a0,64(sp)
    80001d0c:	f175                	bnez	a0,80001cf0 <_ZN6kernel2fs3bio6BufLru14move_if_no_ref17h21abf3790891695dE+0xa2>
    80001d0e:	bfe9                	j	80001ce8 <_ZN6kernel2fs3bio6BufLru14move_if_no_ref17h21abf3790891695dE+0x9a>
    80001d10:	4501                	li	a0,0
    80001d12:	75e2                	ld	a1,56(sp)
    80001d14:	fca586e3          	beq	a1,a0,80001ce0 <_ZN6kernel2fs3bio6BufLru14move_if_no_ref17h21abf3790891695dE+0x92>
    80001d18:	bfc1                	j	80001ce8 <_ZN6kernel2fs3bio6BufLru14move_if_no_ref17h21abf3790891695dE+0x9a>
                self.tail = b.prev;
    80001d1a:	7546                	ld	a0,112(sp)
    80001d1c:	6108                	ld	a0,0(a0)
    80001d1e:	65e6                	ld	a1,88(sp)
    80001d20:	4aa5bc23          	sd	a0,1208(a1)
            if ptr::eq(self.tail, b) && !b.prev.is_null() {
    80001d24:	a011                	j	80001d28 <_ZN6kernel2fs3bio6BufLru14move_if_no_ref17h21abf3790891695dE+0xda>
    80001d26:	a009                	j	80001d28 <_ZN6kernel2fs3bio6BufLru14move_if_no_ref17h21abf3790891695dE+0xda>
            }
            
            // detach b
            unsafe {
                b.next.as_mut().map(|b_next| b_next.prev = b.prev);
    80001d28:	7546                	ld	a0,112(sp)
    80001d2a:	6508                	ld	a0,8(a0)
    80001d2c:	00015097          	auipc	ra,0x15
    80001d30:	cee080e7          	jalr	-786(ra) # 80016a1a <_ZN4core3ptr7mut_ptr31_$LT$impl$u20$$BP$mut$u20$T$GT$6as_mut17h66750c1d0d614d42E>
    80001d34:	f82a                	sd	a0,48(sp)
    80001d36:	a009                	j	80001d38 <_ZN6kernel2fs3bio6BufLru14move_if_no_ref17h21abf3790891695dE+0xea>
    80001d38:	1888                	addi	a0,sp,112
    80001d3a:	e12a                	sd	a0,128(sp)
    80001d3c:	75c2                	ld	a1,48(sp)
    80001d3e:	f42a                	sd	a0,40(sp)
    80001d40:	852e                	mv	a0,a1
    80001d42:	75a2                	ld	a1,40(sp)
    80001d44:	00016097          	auipc	ra,0x16
    80001d48:	68a080e7          	jalr	1674(ra) # 800183ce <_ZN4core6option15Option$LT$T$GT$3map17h750fb81835416bcdE>
    80001d4c:	a009                	j	80001d4e <_ZN6kernel2fs3bio6BufLru14move_if_no_ref17h21abf3790891695dE+0x100>
                b.prev.as_mut().map(|b_prev| b_prev.next = b.next);
    80001d4e:	7546                	ld	a0,112(sp)
    80001d50:	6108                	ld	a0,0(a0)
    80001d52:	00015097          	auipc	ra,0x15
    80001d56:	cc8080e7          	jalr	-824(ra) # 80016a1a <_ZN4core3ptr7mut_ptr31_$LT$impl$u20$$BP$mut$u20$T$GT$6as_mut17h66750c1d0d614d42E>
    80001d5a:	f02a                	sd	a0,32(sp)
    80001d5c:	a009                	j	80001d5e <_ZN6kernel2fs3bio6BufLru14move_if_no_ref17h21abf3790891695dE+0x110>
    80001d5e:	1888                	addi	a0,sp,112
    80001d60:	e52a                	sd	a0,136(sp)
    80001d62:	7582                	ld	a1,32(sp)
    80001d64:	ec2a                	sd	a0,24(sp)
    80001d66:	852e                	mv	a0,a1
    80001d68:	65e2                	ld	a1,24(sp)
    80001d6a:	00016097          	auipc	ra,0x16
    80001d6e:	72c080e7          	jalr	1836(ra) # 80018496 <_ZN4core6option15Option$LT$T$GT$3map17hb7324357cabf3abeE>
    80001d72:	a009                	j	80001d74 <_ZN6kernel2fs3bio6BufLru14move_if_no_ref17h21abf3790891695dE+0x126>
            }

            // attach b
            b.prev = ptr::null_mut();
    80001d74:	a009                	j	80001d76 <_ZN6kernel2fs3bio6BufLru14move_if_no_ref17h21abf3790891695dE+0x128>
    80001d76:	7546                	ld	a0,112(sp)
    80001d78:	4581                	li	a1,0
    80001d7a:	e10c                	sd	a1,0(a0)
            b.next = self.head;
    80001d7c:	6566                	ld	a0,88(sp)
    80001d7e:	4b053583          	ld	a1,1200(a0)
    80001d82:	7646                	ld	a2,112(sp)
    80001d84:	e60c                	sd	a1,8(a2)
            unsafe {
                self.head.as_mut().map(|old_head| old_head.prev = b);
    80001d86:	4b053503          	ld	a0,1200(a0)
    80001d8a:	00015097          	auipc	ra,0x15
    80001d8e:	c90080e7          	jalr	-880(ra) # 80016a1a <_ZN4core3ptr7mut_ptr31_$LT$impl$u20$$BP$mut$u20$T$GT$6as_mut17h66750c1d0d614d42E>
    80001d92:	e82a                	sd	a0,16(sp)
    80001d94:	a009                	j	80001d96 <_ZN6kernel2fs3bio6BufLru14move_if_no_ref17h21abf3790891695dE+0x148>
    80001d96:	1888                	addi	a0,sp,112
    80001d98:	e92a                	sd	a0,144(sp)
    80001d9a:	65c2                	ld	a1,16(sp)
    80001d9c:	e42a                	sd	a0,8(sp)
    80001d9e:	852e                	mv	a0,a1
    80001da0:	65a2                	ld	a1,8(sp)
    80001da2:	00016097          	auipc	ra,0x16
    80001da6:	690080e7          	jalr	1680(ra) # 80018432 <_ZN4core6option15Option$LT$T$GT$3map17ha64c8aa9ffc1cdb4E>
    80001daa:	a009                	j	80001dac <_ZN6kernel2fs3bio6BufLru14move_if_no_ref17h21abf3790891695dE+0x15e>
            }
            self.head = b;
    80001dac:	7546                	ld	a0,112(sp)
    80001dae:	65e6                	ld	a1,88(sp)
    80001db0:	4aa5b823          	sd	a0,1200(a1)
        if b.refcnt == 0 && !ptr::eq(self.head, b) {
    80001db4:	a009                	j	80001db6 <_ZN6kernel2fs3bio6BufLru14move_if_no_ref17h21abf3790891695dE+0x168>
        }
    }
    80001db6:	70aa                	ld	ra,168(sp)
    80001db8:	614d                	addi	sp,sp,176
    80001dba:	8082                	ret

0000000080001dbc <.LBB12_29>:
        let b = &mut self.inner[index];
    80001dbc:	00022617          	auipc	a2,0x22
    80001dc0:	f1460613          	addi	a2,a2,-236 # 80023cd0 <.L__unnamed_33>
    80001dc4:	45f9                	li	a1,30
    80001dc6:	7506                	ld	a0,96(sp)
    80001dc8:	0001f097          	auipc	ra,0x1f
    80001dcc:	f2e080e7          	jalr	-210(ra) # 80020cf6 <_ZN4core9panicking18panic_bounds_check17ha760e6d8204f3836E>
	...

0000000080001dd2 <.LBB12_30>:
        b.refcnt -= 1;
    80001dd2:	00022517          	auipc	a0,0x22
    80001dd6:	b3e50513          	addi	a0,a0,-1218 # 80023910 <str.0>

0000000080001dda <.LBB12_31>:
    80001dda:	00022617          	auipc	a2,0x22
    80001dde:	f0e60613          	addi	a2,a2,-242 # 80023ce8 <.L__unnamed_34>
    80001de2:	02100593          	li	a1,33
    80001de6:	0001f097          	auipc	ra,0x1f
    80001dea:	ee4080e7          	jalr	-284(ra) # 80020cca <_ZN4core9panicking5panic17h4214b4eed8d3f37fE>
	...

Disassembly of section .text._ZN4core3ptr9const_ptr33_$LT$impl$u20$$BP$const$u20$T$GT$6as_ref17h92b195404a3b6fa0E:

0000000080001df0 <_ZN4core3ptr9const_ptr33_$LT$impl$u20$$BP$const$u20$T$GT$6as_ref17h92b195404a3b6fa0E>:
    ///     println!("We got back the value: {}!", val_back);
    /// }
    /// ```
    #[stable(feature = "ptr_as_ref", since = "1.9.0")]
    #[inline]
    pub unsafe fn as_ref<'a>(self) -> Option<&'a T> {
    80001df0:	7179                	addi	sp,sp,-48
    80001df2:	f406                	sd	ra,40(sp)
    80001df4:	f02a                	sd	a0,32(sp)
        // SAFETY: the caller must guarantee that `self` is valid
        // for a reference if it isn't null.
        if self.is_null() { None } else { unsafe { Some(&*self) } }
    80001df6:	e82a                	sd	a0,16(sp)
    80001df8:	00000097          	auipc	ra,0x0
    80001dfc:	02a080e7          	jalr	42(ra) # 80001e22 <_ZN4core3ptr9const_ptr33_$LT$impl$u20$$BP$const$u20$T$GT$7is_null17h4d803be58c5cc0f3E>
    80001e00:	e42a                	sd	a0,8(sp)
    80001e02:	a009                	j	80001e04 <_ZN4core3ptr9const_ptr33_$LT$impl$u20$$BP$const$u20$T$GT$6as_ref17h92b195404a3b6fa0E+0x14>
    80001e04:	4501                	li	a0,0
    80001e06:	65a2                	ld	a1,8(sp)
    80001e08:	00a58663          	beq	a1,a0,80001e14 <_ZN4core3ptr9const_ptr33_$LT$impl$u20$$BP$const$u20$T$GT$6as_ref17h92b195404a3b6fa0E+0x24>
    80001e0c:	a009                	j	80001e0e <_ZN4core3ptr9const_ptr33_$LT$impl$u20$$BP$const$u20$T$GT$6as_ref17h92b195404a3b6fa0E+0x1e>
    80001e0e:	4501                	li	a0,0
    80001e10:	ec2a                	sd	a0,24(sp)
    80001e12:	a021                	j	80001e1a <_ZN4core3ptr9const_ptr33_$LT$impl$u20$$BP$const$u20$T$GT$6as_ref17h92b195404a3b6fa0E+0x2a>
    80001e14:	6542                	ld	a0,16(sp)
    80001e16:	ec2a                	sd	a0,24(sp)
    80001e18:	a009                	j	80001e1a <_ZN4core3ptr9const_ptr33_$LT$impl$u20$$BP$const$u20$T$GT$6as_ref17h92b195404a3b6fa0E+0x2a>
    }
    80001e1a:	6562                	ld	a0,24(sp)
    80001e1c:	70a2                	ld	ra,40(sp)
    80001e1e:	6145                	addi	sp,sp,48
    80001e20:	8082                	ret

Disassembly of section .text._ZN4core3ptr9const_ptr33_$LT$impl$u20$$BP$const$u20$T$GT$7is_null17h4d803be58c5cc0f3E:

0000000080001e22 <_ZN4core3ptr9const_ptr33_$LT$impl$u20$$BP$const$u20$T$GT$7is_null17h4d803be58c5cc0f3E>:
    pub const fn is_null(self) -> bool {
    80001e22:	7179                	addi	sp,sp,-48
    80001e24:	f406                	sd	ra,40(sp)
    80001e26:	f02a                	sd	a0,32(sp)
        (self as *const u8).guaranteed_eq(null())
    80001e28:	ec2a                	sd	a0,24(sp)
    80001e2a:	a009                	j	80001e2c <_ZN4core3ptr9const_ptr33_$LT$impl$u20$$BP$const$u20$T$GT$7is_null17h4d803be58c5cc0f3E+0xa>
    80001e2c:	4501                	li	a0,0
    80001e2e:	65e2                	ld	a1,24(sp)
    80001e30:	e82a                	sd	a0,16(sp)
    80001e32:	852e                	mv	a0,a1
    80001e34:	65c2                	ld	a1,16(sp)
    80001e36:	0001f097          	auipc	ra,0x1f
    80001e3a:	b3c080e7          	jalr	-1220(ra) # 80020972 <_ZN4core3ptr9const_ptr33_$LT$impl$u20$$BP$const$u20$T$GT$13guaranteed_eq17h99e80ad9ba777ad7E>
    80001e3e:	e42a                	sd	a0,8(sp)
    80001e40:	a009                	j	80001e42 <_ZN4core3ptr9const_ptr33_$LT$impl$u20$$BP$const$u20$T$GT$7is_null17h4d803be58c5cc0f3E+0x20>
    }
    80001e42:	6522                	ld	a0,8(sp)
    80001e44:	70a2                	ld	ra,40(sp)
    80001e46:	6145                	addi	sp,sp,48
    80001e48:	8082                	ret

Disassembly of section .text._ZN5alloc7raw_vec11alloc_guard17h9a08200daba46f5bE:

0000000080001e4a <_ZN5alloc7raw_vec11alloc_guard17h9a08200daba46f5bE>:
// `> isize::MAX` bytes will surely fail. On 32-bit and 16-bit we need to add
// an extra guard for this in case we're running on a platform which can use
// all 4GB in user-space, e.g., PAE or x32.

#[inline]
fn alloc_guard(alloc_size: usize) -> Result<(), TryReserveError> {
    80001e4a:	1101                	addi	sp,sp,-32
    80001e4c:	ec2e                	sd	a1,24(sp)
    80001e4e:	4585                	li	a1,1
    if usize::BITS < 64 && alloc_size > isize::MAX as usize {
    80001e50:	e02a                	sd	a0,0(sp)
    80001e52:	e999                	bnez	a1,80001e68 <_ZN5alloc7raw_vec11alloc_guard17h9a08200daba46f5bE+0x1e>
    80001e54:	a009                	j	80001e56 <_ZN5alloc7raw_vec11alloc_guard17h9a08200daba46f5bE+0xc>
    80001e56:	4501                	li	a0,0
        Err(CapacityOverflow)
    80001e58:	e82a                	sd	a0,16(sp)
    80001e5a:	65a2                	ld	a1,8(sp)
    80001e5c:	6602                	ld	a2,0(sp)
    80001e5e:	e60c                	sd	a1,8(a2)
    80001e60:	ea08                	sd	a0,16(a2)
    80001e62:	4505                	li	a0,1
    80001e64:	e208                	sd	a0,0(a2)
    if usize::BITS < 64 && alloc_size > isize::MAX as usize {
    80001e66:	a029                	j	80001e70 <_ZN5alloc7raw_vec11alloc_guard17h9a08200daba46f5bE+0x26>
    80001e68:	4501                	li	a0,0
    } else {
        Ok(())
    80001e6a:	6582                	ld	a1,0(sp)
    80001e6c:	e188                	sd	a0,0(a1)
    if usize::BITS < 64 && alloc_size > isize::MAX as usize {
    80001e6e:	a009                	j	80001e70 <_ZN5alloc7raw_vec11alloc_guard17h9a08200daba46f5bE+0x26>
    }
}
    80001e70:	6105                	addi	sp,sp,32
    80001e72:	8082                	ret

Disassembly of section .text._ZN4core3ptr6unique15Unique$LT$T$GT$13new_unchecked17h21adf75b002a4242E:

0000000080001e74 <_ZN4core3ptr6unique15Unique$LT$T$GT$13new_unchecked17h21adf75b002a4242E>:
    ///
    /// # Safety
    ///
    /// `ptr` must be non-null.
    #[inline]
    pub const unsafe fn new_unchecked(ptr: *mut T) -> Self {
    80001e74:	1101                	addi	sp,sp,-32
    80001e76:	ec2a                	sd	a0,24(sp)
        // SAFETY: the caller must guarantee that `ptr` is non-null.
        unsafe { Unique { pointer: ptr as _, _marker: PhantomData } }
    80001e78:	e42a                	sd	a0,8(sp)
    }
    80001e7a:	6105                	addi	sp,sp,32
    80001e7c:	8082                	ret

Disassembly of section .text._ZN4core3ptr6unique15Unique$LT$T$GT$13new_unchecked17h2f8c923d52c3c5a7E:

0000000080001e7e <_ZN4core3ptr6unique15Unique$LT$T$GT$13new_unchecked17h2f8c923d52c3c5a7E>:
    pub const unsafe fn new_unchecked(ptr: *mut T) -> Self {
    80001e7e:	1101                	addi	sp,sp,-32
    80001e80:	ec2a                	sd	a0,24(sp)
        unsafe { Unique { pointer: ptr as _, _marker: PhantomData } }
    80001e82:	e42a                	sd	a0,8(sp)
    }
    80001e84:	6105                	addi	sp,sp,32
    80001e86:	8082                	ret

Disassembly of section .text._ZN4core3ptr6unique15Unique$LT$T$GT$13new_unchecked17h3353e712eb2a3ffaE:

0000000080001e88 <_ZN4core3ptr6unique15Unique$LT$T$GT$13new_unchecked17h3353e712eb2a3ffaE>:
    pub const unsafe fn new_unchecked(ptr: *mut T) -> Self {
    80001e88:	1101                	addi	sp,sp,-32
    80001e8a:	ec2a                	sd	a0,24(sp)
        unsafe { Unique { pointer: ptr as _, _marker: PhantomData } }
    80001e8c:	e42a                	sd	a0,8(sp)
    }
    80001e8e:	6105                	addi	sp,sp,32
    80001e90:	8082                	ret

Disassembly of section .text._ZN4core3ptr6unique15Unique$LT$T$GT$13new_unchecked17h39f675013525d82dE:

0000000080001e92 <_ZN4core3ptr6unique15Unique$LT$T$GT$13new_unchecked17h39f675013525d82dE>:
    pub const unsafe fn new_unchecked(ptr: *mut T) -> Self {
    80001e92:	1101                	addi	sp,sp,-32
    80001e94:	ec2a                	sd	a0,24(sp)
        unsafe { Unique { pointer: ptr as _, _marker: PhantomData } }
    80001e96:	e42a                	sd	a0,8(sp)
    }
    80001e98:	6105                	addi	sp,sp,32
    80001e9a:	8082                	ret

Disassembly of section .text._ZN4core3ptr6unique15Unique$LT$T$GT$13new_unchecked17h4308fef04503f178E:

0000000080001e9c <_ZN4core3ptr6unique15Unique$LT$T$GT$13new_unchecked17h4308fef04503f178E>:
    pub const unsafe fn new_unchecked(ptr: *mut T) -> Self {
    80001e9c:	1101                	addi	sp,sp,-32
    80001e9e:	ec2a                	sd	a0,24(sp)
        unsafe { Unique { pointer: ptr as _, _marker: PhantomData } }
    80001ea0:	e42a                	sd	a0,8(sp)
    }
    80001ea2:	6105                	addi	sp,sp,32
    80001ea4:	8082                	ret

Disassembly of section .text._ZN4core3ptr6unique15Unique$LT$T$GT$13new_unchecked17h924794941152a721E:

0000000080001ea6 <_ZN4core3ptr6unique15Unique$LT$T$GT$13new_unchecked17h924794941152a721E>:
    pub const unsafe fn new_unchecked(ptr: *mut T) -> Self {
    80001ea6:	1101                	addi	sp,sp,-32
    80001ea8:	ec2a                	sd	a0,24(sp)
        unsafe { Unique { pointer: ptr as _, _marker: PhantomData } }
    80001eaa:	e42a                	sd	a0,8(sp)
    }
    80001eac:	6105                	addi	sp,sp,32
    80001eae:	8082                	ret

Disassembly of section .text._ZN4core3ptr6unique15Unique$LT$T$GT$13new_unchecked17ha7bd729a3c416b65E:

0000000080001eb0 <_ZN4core3ptr6unique15Unique$LT$T$GT$13new_unchecked17ha7bd729a3c416b65E>:
    pub const unsafe fn new_unchecked(ptr: *mut T) -> Self {
    80001eb0:	1101                	addi	sp,sp,-32
    80001eb2:	ec2a                	sd	a0,24(sp)
        unsafe { Unique { pointer: ptr as _, _marker: PhantomData } }
    80001eb4:	e42a                	sd	a0,8(sp)
    }
    80001eb6:	6105                	addi	sp,sp,32
    80001eb8:	8082                	ret

Disassembly of section .text._ZN4core3ptr6unique15Unique$LT$T$GT$13new_unchecked17hbebc9bb9f86d3ce3E:

0000000080001eba <_ZN4core3ptr6unique15Unique$LT$T$GT$13new_unchecked17hbebc9bb9f86d3ce3E>:
    pub const unsafe fn new_unchecked(ptr: *mut T) -> Self {
    80001eba:	1101                	addi	sp,sp,-32
    80001ebc:	ec2a                	sd	a0,24(sp)
        unsafe { Unique { pointer: ptr as _, _marker: PhantomData } }
    80001ebe:	e42a                	sd	a0,8(sp)
    }
    80001ec0:	6105                	addi	sp,sp,32
    80001ec2:	8082                	ret

Disassembly of section .text._ZN4core3ptr6unique15Unique$LT$T$GT$13new_unchecked17hccef918f8b6125c8E:

0000000080001ec4 <_ZN4core3ptr6unique15Unique$LT$T$GT$13new_unchecked17hccef918f8b6125c8E>:
    pub const unsafe fn new_unchecked(ptr: *mut T) -> Self {
    80001ec4:	1101                	addi	sp,sp,-32
    80001ec6:	ec2a                	sd	a0,24(sp)
        unsafe { Unique { pointer: ptr as _, _marker: PhantomData } }
    80001ec8:	e42a                	sd	a0,8(sp)
    }
    80001eca:	6105                	addi	sp,sp,32
    80001ecc:	8082                	ret

Disassembly of section .text._ZN4core3ptr6unique15Unique$LT$T$GT$13new_unchecked17hd13d4ecee2f6992cE:

0000000080001ece <_ZN4core3ptr6unique15Unique$LT$T$GT$13new_unchecked17hd13d4ecee2f6992cE>:
    pub const unsafe fn new_unchecked(ptr: *mut T) -> Self {
    80001ece:	1101                	addi	sp,sp,-32
    80001ed0:	ec2a                	sd	a0,24(sp)
        unsafe { Unique { pointer: ptr as _, _marker: PhantomData } }
    80001ed2:	e42a                	sd	a0,8(sp)
    }
    80001ed4:	6105                	addi	sp,sp,32
    80001ed6:	8082                	ret

Disassembly of section .text._ZN4core3ptr6unique15Unique$LT$T$GT$13new_unchecked17heee931e2ec7501e7E:

0000000080001ed8 <_ZN4core3ptr6unique15Unique$LT$T$GT$13new_unchecked17heee931e2ec7501e7E>:
    pub const unsafe fn new_unchecked(ptr: *mut T) -> Self {
    80001ed8:	1101                	addi	sp,sp,-32
    80001eda:	ec2a                	sd	a0,24(sp)
        unsafe { Unique { pointer: ptr as _, _marker: PhantomData } }
    80001edc:	e42a                	sd	a0,8(sp)
    }
    80001ede:	6105                	addi	sp,sp,32
    80001ee0:	8082                	ret

Disassembly of section .text._ZN4core3ptr6unique15Unique$LT$T$GT$4cast17h0c1984262f2d00bfE:

0000000080001ee2 <_ZN4core3ptr6unique15Unique$LT$T$GT$4cast17h0c1984262f2d00bfE>:
        unsafe { &mut *self.as_ptr() }
    }

    /// Casts to a pointer of another type.
    #[inline]
    pub const fn cast<U>(self) -> Unique<U> {
    80001ee2:	1101                	addi	sp,sp,-32
    80001ee4:	ec06                	sd	ra,24(sp)
    80001ee6:	e82a                	sd	a0,16(sp)
        // SAFETY: Unique::new_unchecked() creates a new unique and needs
        // the given pointer to not be null.
        // Since we are passing self as a pointer, it cannot be null.
        unsafe { Unique::new_unchecked(self.as_ptr() as *mut U) }
    80001ee8:	00000097          	auipc	ra,0x0
    80001eec:	0f2080e7          	jalr	242(ra) # 80001fda <_ZN4core3ptr6unique15Unique$LT$T$GT$6as_ptr17hf7b0492237203680E>
    80001ef0:	e42a                	sd	a0,8(sp)
    80001ef2:	a009                	j	80001ef4 <_ZN4core3ptr6unique15Unique$LT$T$GT$4cast17h0c1984262f2d00bfE+0x12>
    80001ef4:	6522                	ld	a0,8(sp)
    80001ef6:	00000097          	auipc	ra,0x0
    80001efa:	fd8080e7          	jalr	-40(ra) # 80001ece <_ZN4core3ptr6unique15Unique$LT$T$GT$13new_unchecked17hd13d4ecee2f6992cE>
    80001efe:	e02a                	sd	a0,0(sp)
    80001f00:	a009                	j	80001f02 <_ZN4core3ptr6unique15Unique$LT$T$GT$4cast17h0c1984262f2d00bfE+0x20>
    }
    80001f02:	6502                	ld	a0,0(sp)
    80001f04:	60e2                	ld	ra,24(sp)
    80001f06:	6105                	addi	sp,sp,32
    80001f08:	8082                	ret

Disassembly of section .text._ZN4core3ptr6unique15Unique$LT$T$GT$4cast17h5d32a83f44028c26E:

0000000080001f0a <_ZN4core3ptr6unique15Unique$LT$T$GT$4cast17h5d32a83f44028c26E>:
    pub const fn cast<U>(self) -> Unique<U> {
    80001f0a:	1101                	addi	sp,sp,-32
    80001f0c:	ec06                	sd	ra,24(sp)
    80001f0e:	e82a                	sd	a0,16(sp)
        unsafe { Unique::new_unchecked(self.as_ptr() as *mut U) }
    80001f10:	00000097          	auipc	ra,0x0
    80001f14:	0aa080e7          	jalr	170(ra) # 80001fba <_ZN4core3ptr6unique15Unique$LT$T$GT$6as_ptr17h9897251b4a8edbceE>
    80001f18:	e42a                	sd	a0,8(sp)
    80001f1a:	a009                	j	80001f1c <_ZN4core3ptr6unique15Unique$LT$T$GT$4cast17h5d32a83f44028c26E+0x12>
    80001f1c:	6522                	ld	a0,8(sp)
    80001f1e:	00000097          	auipc	ra,0x0
    80001f22:	fb0080e7          	jalr	-80(ra) # 80001ece <_ZN4core3ptr6unique15Unique$LT$T$GT$13new_unchecked17hd13d4ecee2f6992cE>
    80001f26:	e02a                	sd	a0,0(sp)
    80001f28:	a009                	j	80001f2a <_ZN4core3ptr6unique15Unique$LT$T$GT$4cast17h5d32a83f44028c26E+0x20>
    }
    80001f2a:	6502                	ld	a0,0(sp)
    80001f2c:	60e2                	ld	ra,24(sp)
    80001f2e:	6105                	addi	sp,sp,32
    80001f30:	8082                	ret

Disassembly of section .text._ZN4core3ptr6unique15Unique$LT$T$GT$4cast17hdc1230251483f2a6E:

0000000080001f32 <_ZN4core3ptr6unique15Unique$LT$T$GT$4cast17hdc1230251483f2a6E>:
    pub const fn cast<U>(self) -> Unique<U> {
    80001f32:	1101                	addi	sp,sp,-32
    80001f34:	ec06                	sd	ra,24(sp)
    80001f36:	e82a                	sd	a0,16(sp)
        unsafe { Unique::new_unchecked(self.as_ptr() as *mut U) }
    80001f38:	00000097          	auipc	ra,0x0
    80001f3c:	07a080e7          	jalr	122(ra) # 80001fb2 <_ZN4core3ptr6unique15Unique$LT$T$GT$6as_ptr17h6ea3c7c3506344aeE>
    80001f40:	e42a                	sd	a0,8(sp)
    80001f42:	a009                	j	80001f44 <_ZN4core3ptr6unique15Unique$LT$T$GT$4cast17hdc1230251483f2a6E+0x12>
    80001f44:	6522                	ld	a0,8(sp)
    80001f46:	00000097          	auipc	ra,0x0
    80001f4a:	f88080e7          	jalr	-120(ra) # 80001ece <_ZN4core3ptr6unique15Unique$LT$T$GT$13new_unchecked17hd13d4ecee2f6992cE>
    80001f4e:	e02a                	sd	a0,0(sp)
    80001f50:	a009                	j	80001f52 <_ZN4core3ptr6unique15Unique$LT$T$GT$4cast17hdc1230251483f2a6E+0x20>
    }
    80001f52:	6502                	ld	a0,0(sp)
    80001f54:	60e2                	ld	ra,24(sp)
    80001f56:	6105                	addi	sp,sp,32
    80001f58:	8082                	ret

Disassembly of section .text._ZN4core3ptr6unique15Unique$LT$T$GT$4cast17hf6d9149f6c36667bE:

0000000080001f5a <_ZN4core3ptr6unique15Unique$LT$T$GT$4cast17hf6d9149f6c36667bE>:
    pub const fn cast<U>(self) -> Unique<U> {
    80001f5a:	1101                	addi	sp,sp,-32
    80001f5c:	ec06                	sd	ra,24(sp)
    80001f5e:	e82a                	sd	a0,16(sp)
        unsafe { Unique::new_unchecked(self.as_ptr() as *mut U) }
    80001f60:	00000097          	auipc	ra,0x0
    80001f64:	06a080e7          	jalr	106(ra) # 80001fca <_ZN4core3ptr6unique15Unique$LT$T$GT$6as_ptr17hdbbd95956b998284E>
    80001f68:	e42a                	sd	a0,8(sp)
    80001f6a:	a009                	j	80001f6c <_ZN4core3ptr6unique15Unique$LT$T$GT$4cast17hf6d9149f6c36667bE+0x12>
    80001f6c:	6522                	ld	a0,8(sp)
    80001f6e:	00000097          	auipc	ra,0x0
    80001f72:	f60080e7          	jalr	-160(ra) # 80001ece <_ZN4core3ptr6unique15Unique$LT$T$GT$13new_unchecked17hd13d4ecee2f6992cE>
    80001f76:	e02a                	sd	a0,0(sp)
    80001f78:	a009                	j	80001f7a <_ZN4core3ptr6unique15Unique$LT$T$GT$4cast17hf6d9149f6c36667bE+0x20>
    }
    80001f7a:	6502                	ld	a0,0(sp)
    80001f7c:	60e2                	ld	ra,24(sp)
    80001f7e:	6105                	addi	sp,sp,32
    80001f80:	8082                	ret

Disassembly of section .text._ZN4core3ptr6unique15Unique$LT$T$GT$6as_ptr17h0386423813171eb0E:

0000000080001f82 <_ZN4core3ptr6unique15Unique$LT$T$GT$6as_ptr17h0386423813171eb0E>:
    pub const fn as_ptr(self) -> *mut T {
    80001f82:	1141                	addi	sp,sp,-16
    80001f84:	e42a                	sd	a0,8(sp)
    }
    80001f86:	0141                	addi	sp,sp,16
    80001f88:	8082                	ret

Disassembly of section .text._ZN4core3ptr6unique15Unique$LT$T$GT$6as_ptr17h2181edd212a7ee9aE:

0000000080001f8a <_ZN4core3ptr6unique15Unique$LT$T$GT$6as_ptr17h2181edd212a7ee9aE>:
    pub const fn as_ptr(self) -> *mut T {
    80001f8a:	1141                	addi	sp,sp,-16
    80001f8c:	e42a                	sd	a0,8(sp)
    }
    80001f8e:	0141                	addi	sp,sp,16
    80001f90:	8082                	ret

Disassembly of section .text._ZN4core3ptr6unique15Unique$LT$T$GT$6as_ptr17h468cf24034a9739bE:

0000000080001f92 <_ZN4core3ptr6unique15Unique$LT$T$GT$6as_ptr17h468cf24034a9739bE>:
    pub const fn as_ptr(self) -> *mut T {
    80001f92:	1141                	addi	sp,sp,-16
    80001f94:	e42a                	sd	a0,8(sp)
    }
    80001f96:	0141                	addi	sp,sp,16
    80001f98:	8082                	ret

Disassembly of section .text._ZN4core3ptr6unique15Unique$LT$T$GT$6as_ptr17h48c57f5ee2020847E:

0000000080001f9a <_ZN4core3ptr6unique15Unique$LT$T$GT$6as_ptr17h48c57f5ee2020847E>:
    pub const fn as_ptr(self) -> *mut T {
    80001f9a:	1141                	addi	sp,sp,-16
    80001f9c:	e42a                	sd	a0,8(sp)
    }
    80001f9e:	0141                	addi	sp,sp,16
    80001fa0:	8082                	ret

Disassembly of section .text._ZN4core3ptr6unique15Unique$LT$T$GT$6as_ptr17h56386e93ea326343E:

0000000080001fa2 <_ZN4core3ptr6unique15Unique$LT$T$GT$6as_ptr17h56386e93ea326343E>:
    pub const fn as_ptr(self) -> *mut T {
    80001fa2:	1141                	addi	sp,sp,-16
    80001fa4:	e42a                	sd	a0,8(sp)
    }
    80001fa6:	0141                	addi	sp,sp,16
    80001fa8:	8082                	ret

Disassembly of section .text._ZN4core3ptr6unique15Unique$LT$T$GT$6as_ptr17h6813dc49e09f1909E:

0000000080001faa <_ZN4core3ptr6unique15Unique$LT$T$GT$6as_ptr17h6813dc49e09f1909E>:
    pub const fn as_ptr(self) -> *mut T {
    80001faa:	1141                	addi	sp,sp,-16
    80001fac:	e42a                	sd	a0,8(sp)
    }
    80001fae:	0141                	addi	sp,sp,16
    80001fb0:	8082                	ret

Disassembly of section .text._ZN4core3ptr6unique15Unique$LT$T$GT$6as_ptr17h6ea3c7c3506344aeE:

0000000080001fb2 <_ZN4core3ptr6unique15Unique$LT$T$GT$6as_ptr17h6ea3c7c3506344aeE>:
    pub const fn as_ptr(self) -> *mut T {
    80001fb2:	1141                	addi	sp,sp,-16
    80001fb4:	e42a                	sd	a0,8(sp)
    }
    80001fb6:	0141                	addi	sp,sp,16
    80001fb8:	8082                	ret

Disassembly of section .text._ZN4core3ptr6unique15Unique$LT$T$GT$6as_ptr17h9897251b4a8edbceE:

0000000080001fba <_ZN4core3ptr6unique15Unique$LT$T$GT$6as_ptr17h9897251b4a8edbceE>:
    pub const fn as_ptr(self) -> *mut T {
    80001fba:	1141                	addi	sp,sp,-16
    80001fbc:	e42a                	sd	a0,8(sp)
    }
    80001fbe:	0141                	addi	sp,sp,16
    80001fc0:	8082                	ret

Disassembly of section .text._ZN4core3ptr6unique15Unique$LT$T$GT$6as_ptr17ha9257223563d9ec5E:

0000000080001fc2 <_ZN4core3ptr6unique15Unique$LT$T$GT$6as_ptr17ha9257223563d9ec5E>:
    pub const fn as_ptr(self) -> *mut T {
    80001fc2:	1141                	addi	sp,sp,-16
    80001fc4:	e42a                	sd	a0,8(sp)
    }
    80001fc6:	0141                	addi	sp,sp,16
    80001fc8:	8082                	ret

Disassembly of section .text._ZN4core3ptr6unique15Unique$LT$T$GT$6as_ptr17hdbbd95956b998284E:

0000000080001fca <_ZN4core3ptr6unique15Unique$LT$T$GT$6as_ptr17hdbbd95956b998284E>:
    pub const fn as_ptr(self) -> *mut T {
    80001fca:	1141                	addi	sp,sp,-16
    80001fcc:	e42a                	sd	a0,8(sp)
    }
    80001fce:	0141                	addi	sp,sp,16
    80001fd0:	8082                	ret

Disassembly of section .text._ZN4core3ptr6unique15Unique$LT$T$GT$6as_ptr17hf41eaba29410c82aE:

0000000080001fd2 <_ZN4core3ptr6unique15Unique$LT$T$GT$6as_ptr17hf41eaba29410c82aE>:
    pub const fn as_ptr(self) -> *mut T {
    80001fd2:	1141                	addi	sp,sp,-16
    80001fd4:	e42a                	sd	a0,8(sp)
    }
    80001fd6:	0141                	addi	sp,sp,16
    80001fd8:	8082                	ret

Disassembly of section .text._ZN4core3ptr6unique15Unique$LT$T$GT$6as_ptr17hf7b0492237203680E:

0000000080001fda <_ZN4core3ptr6unique15Unique$LT$T$GT$6as_ptr17hf7b0492237203680E>:
    pub const fn as_ptr(self) -> *mut T {
    80001fda:	1141                	addi	sp,sp,-16
    80001fdc:	e42a                	sd	a0,8(sp)
    }
    80001fde:	0141                	addi	sp,sp,16
    80001fe0:	8082                	ret

Disassembly of section .text._ZN4core3ptr6unique15Unique$LT$T$GT$6as_ref17h79218c7991a833abE:

0000000080001fe2 <_ZN4core3ptr6unique15Unique$LT$T$GT$6as_ref17h79218c7991a833abE>:
    pub unsafe fn as_ref(&self) -> &T {
    80001fe2:	1101                	addi	sp,sp,-32
    80001fe4:	ec06                	sd	ra,24(sp)
    80001fe6:	e82a                	sd	a0,16(sp)
        unsafe { &*self.as_ptr() }
    80001fe8:	6108                	ld	a0,0(a0)
    80001fea:	00000097          	auipc	ra,0x0
    80001fee:	fe0080e7          	jalr	-32(ra) # 80001fca <_ZN4core3ptr6unique15Unique$LT$T$GT$6as_ptr17hdbbd95956b998284E>
    80001ff2:	e42a                	sd	a0,8(sp)
    80001ff4:	a009                	j	80001ff6 <_ZN4core3ptr6unique15Unique$LT$T$GT$6as_ref17h79218c7991a833abE+0x14>
    }
    80001ff6:	6522                	ld	a0,8(sp)
    80001ff8:	60e2                	ld	ra,24(sp)
    80001ffa:	6105                	addi	sp,sp,32
    80001ffc:	8082                	ret

Disassembly of section .text._ZN4core3ptr6unique15Unique$LT$T$GT$6as_ref17h8e2fe1161ed022c7E:

0000000080001ffe <_ZN4core3ptr6unique15Unique$LT$T$GT$6as_ref17h8e2fe1161ed022c7E>:
    pub unsafe fn as_ref(&self) -> &T {
    80001ffe:	1101                	addi	sp,sp,-32
    80002000:	ec06                	sd	ra,24(sp)
    80002002:	e82a                	sd	a0,16(sp)
        unsafe { &*self.as_ptr() }
    80002004:	6108                	ld	a0,0(a0)
    80002006:	00000097          	auipc	ra,0x0
    8000200a:	fac080e7          	jalr	-84(ra) # 80001fb2 <_ZN4core3ptr6unique15Unique$LT$T$GT$6as_ptr17h6ea3c7c3506344aeE>
    8000200e:	e42a                	sd	a0,8(sp)
    80002010:	a009                	j	80002012 <_ZN4core3ptr6unique15Unique$LT$T$GT$6as_ref17h8e2fe1161ed022c7E+0x14>
    }
    80002012:	6522                	ld	a0,8(sp)
    80002014:	60e2                	ld	ra,24(sp)
    80002016:	6105                	addi	sp,sp,32
    80002018:	8082                	ret

Disassembly of section .text._ZN4core3ptr6unique15Unique$LT$T$GT$6as_ref17hee41a35c2ca44304E:

000000008000201a <_ZN4core3ptr6unique15Unique$LT$T$GT$6as_ref17hee41a35c2ca44304E>:
    pub unsafe fn as_ref(&self) -> &T {
    8000201a:	1101                	addi	sp,sp,-32
    8000201c:	ec06                	sd	ra,24(sp)
    8000201e:	e82a                	sd	a0,16(sp)
        unsafe { &*self.as_ptr() }
    80002020:	6108                	ld	a0,0(a0)
    80002022:	00000097          	auipc	ra,0x0
    80002026:	fb8080e7          	jalr	-72(ra) # 80001fda <_ZN4core3ptr6unique15Unique$LT$T$GT$6as_ptr17hf7b0492237203680E>
    8000202a:	e42a                	sd	a0,8(sp)
    8000202c:	a009                	j	8000202e <_ZN4core3ptr6unique15Unique$LT$T$GT$6as_ref17hee41a35c2ca44304E+0x14>
    }
    8000202e:	6522                	ld	a0,8(sp)
    80002030:	60e2                	ld	ra,24(sp)
    80002032:	6105                	addi	sp,sp,32
    80002034:	8082                	ret

Disassembly of section .text._ZN4core3ptr6unique15Unique$LT$T$GT$8dangling17he5815a65a6879de1E:

0000000080002036 <_ZN4core3ptr6unique15Unique$LT$T$GT$8dangling17he5815a65a6879de1E>:
    pub const fn dangling() -> Self {
    80002036:	1101                	addi	sp,sp,-32
    80002038:	ec06                	sd	ra,24(sp)
    8000203a:	4505                	li	a0,1
#[inline(always)]
#[stable(feature = "rust1", since = "1.0.0")]
#[rustc_promotable]
#[rustc_const_stable(feature = "const_align_of", since = "1.32.0")]
pub const fn align_of<T>() -> usize {
    intrinsics::min_align_of::<T>()
    8000203c:	e82a                	sd	a0,16(sp)
        unsafe { Unique::new_unchecked(mem::align_of::<T>() as *mut T) }
    8000203e:	e42a                	sd	a0,8(sp)
    80002040:	a009                	j	80002042 <_ZN4core3ptr6unique15Unique$LT$T$GT$8dangling17he5815a65a6879de1E+0xc>
    80002042:	6522                	ld	a0,8(sp)
    80002044:	00000097          	auipc	ra,0x0
    80002048:	e8a080e7          	jalr	-374(ra) # 80001ece <_ZN4core3ptr6unique15Unique$LT$T$GT$13new_unchecked17hd13d4ecee2f6992cE>
    8000204c:	e02a                	sd	a0,0(sp)
    8000204e:	a009                	j	80002050 <_ZN4core3ptr6unique15Unique$LT$T$GT$8dangling17he5815a65a6879de1E+0x1a>
    }
    80002050:	6502                	ld	a0,0(sp)
    80002052:	60e2                	ld	ra,24(sp)
    80002054:	6105                	addi	sp,sp,32
    80002056:	8082                	ret

Disassembly of section .text._ZN50_$LT$T$u20$as$u20$core..convert..Into$LT$U$GT$$GT$4into17he3a5d381a0afee04E:

0000000080002058 <_ZN50_$LT$T$u20$as$u20$core..convert..Into$LT$U$GT$$GT$4into17he3a5d381a0afee04E>:
#[stable(feature = "rust1", since = "1.0.0")]
impl<T, U> Into<U> for T
where
    U: From<T>,
{
    fn into(self) -> U {
    80002058:	1101                	addi	sp,sp,-32
    8000205a:	ec06                	sd	ra,24(sp)
    8000205c:	e82a                	sd	a0,16(sp)
        U::from(self)
    8000205e:	00003097          	auipc	ra,0x3
    80002062:	9da080e7          	jalr	-1574(ra) # 80004a38 <_ZN119_$LT$core..ptr..non_null..NonNull$LT$T$GT$$u20$as$u20$core..convert..From$LT$core..ptr..unique..Unique$LT$T$GT$$GT$$GT$4from17h3fad231efc23c2a5E>
    80002066:	e42a                	sd	a0,8(sp)
    80002068:	a009                	j	8000206a <_ZN50_$LT$T$u20$as$u20$core..convert..Into$LT$U$GT$$GT$4into17he3a5d381a0afee04E+0x12>
    }
    8000206a:	6522                	ld	a0,8(sp)
    8000206c:	60e2                	ld	ra,24(sp)
    8000206e:	6105                	addi	sp,sp,32
    80002070:	8082                	ret

Disassembly of section .text._ZN95_$LT$core..ptr..unique..Unique$LT$T$GT$$u20$as$u20$core..convert..From$LT$$RF$mut$u20$T$GT$$GT$4from17h006907329984ac95E:

0000000080002072 <_ZN95_$LT$core..ptr..unique..Unique$LT$T$GT$$u20$as$u20$core..convert..From$LT$$RF$mut$u20$T$GT$$GT$4from17h006907329984ac95E>:
}

#[unstable(feature = "ptr_internals", issue = "none")]
impl<T: ?Sized> From<&mut T> for Unique<T> {
    #[inline]
    fn from(reference: &mut T) -> Self {
    80002072:	1101                	addi	sp,sp,-32
    80002074:	ec2a                	sd	a0,24(sp)
        // SAFETY: A mutable reference cannot be null
        unsafe { Unique { pointer: reference as *mut T, _marker: PhantomData } }
    80002076:	e42a                	sd	a0,8(sp)
    }
    80002078:	6105                	addi	sp,sp,32
    8000207a:	8082                	ret

Disassembly of section .text._ZN95_$LT$core..ptr..unique..Unique$LT$T$GT$$u20$as$u20$core..convert..From$LT$$RF$mut$u20$T$GT$$GT$4from17h51d1f1221f20c5f4E:

000000008000207c <_ZN95_$LT$core..ptr..unique..Unique$LT$T$GT$$u20$as$u20$core..convert..From$LT$$RF$mut$u20$T$GT$$GT$4from17h51d1f1221f20c5f4E>:
    fn from(reference: &mut T) -> Self {
    8000207c:	1101                	addi	sp,sp,-32
    8000207e:	ec2a                	sd	a0,24(sp)
        unsafe { Unique { pointer: reference as *mut T, _marker: PhantomData } }
    80002080:	e42a                	sd	a0,8(sp)
    }
    80002082:	6105                	addi	sp,sp,32
    80002084:	8082                	ret

Disassembly of section .text._ZN95_$LT$core..ptr..unique..Unique$LT$T$GT$$u20$as$u20$core..convert..From$LT$$RF$mut$u20$T$GT$$GT$4from17h9edc2f33a0d276cbE:

0000000080002086 <_ZN95_$LT$core..ptr..unique..Unique$LT$T$GT$$u20$as$u20$core..convert..From$LT$$RF$mut$u20$T$GT$$GT$4from17h9edc2f33a0d276cbE>:
    fn from(reference: &mut T) -> Self {
    80002086:	1101                	addi	sp,sp,-32
    80002088:	ec2a                	sd	a0,24(sp)
        unsafe { Unique { pointer: reference as *mut T, _marker: PhantomData } }
    8000208a:	e42a                	sd	a0,8(sp)
    }
    8000208c:	6105                	addi	sp,sp,32
    8000208e:	8082                	ret

Disassembly of section .text._ZN95_$LT$core..ptr..unique..Unique$LT$T$GT$$u20$as$u20$core..convert..From$LT$$RF$mut$u20$T$GT$$GT$4from17hb0bac57ce42b758fE:

0000000080002090 <_ZN95_$LT$core..ptr..unique..Unique$LT$T$GT$$u20$as$u20$core..convert..From$LT$$RF$mut$u20$T$GT$$GT$4from17hb0bac57ce42b758fE>:
    fn from(reference: &mut T) -> Self {
    80002090:	1101                	addi	sp,sp,-32
    80002092:	ec2a                	sd	a0,24(sp)
        unsafe { Unique { pointer: reference as *mut T, _marker: PhantomData } }
    80002094:	e42a                	sd	a0,8(sp)
    }
    80002096:	6105                	addi	sp,sp,32
    80002098:	8082                	ret

Disassembly of section .text._ZN95_$LT$core..ptr..unique..Unique$LT$T$GT$$u20$as$u20$core..convert..From$LT$$RF$mut$u20$T$GT$$GT$4from17hc2b9671993f6f790E:

000000008000209a <_ZN95_$LT$core..ptr..unique..Unique$LT$T$GT$$u20$as$u20$core..convert..From$LT$$RF$mut$u20$T$GT$$GT$4from17hc2b9671993f6f790E>:
    fn from(reference: &mut T) -> Self {
    8000209a:	1101                	addi	sp,sp,-32
    8000209c:	ec2a                	sd	a0,24(sp)
        unsafe { Unique { pointer: reference as *mut T, _marker: PhantomData } }
    8000209e:	e42a                	sd	a0,8(sp)
    }
    800020a0:	6105                	addi	sp,sp,32
    800020a2:	8082                	ret

Disassembly of section .text._ZN95_$LT$core..ptr..unique..Unique$LT$T$GT$$u20$as$u20$core..convert..From$LT$$RF$mut$u20$T$GT$$GT$4from17hc4659dfa449ae3d8E:

00000000800020a4 <_ZN95_$LT$core..ptr..unique..Unique$LT$T$GT$$u20$as$u20$core..convert..From$LT$$RF$mut$u20$T$GT$$GT$4from17hc4659dfa449ae3d8E>:
    fn from(reference: &mut T) -> Self {
    800020a4:	1101                	addi	sp,sp,-32
    800020a6:	ec2a                	sd	a0,24(sp)
        unsafe { Unique { pointer: reference as *mut T, _marker: PhantomData } }
    800020a8:	e42a                	sd	a0,8(sp)
    }
    800020aa:	6105                	addi	sp,sp,32
    800020ac:	8082                	ret

Disassembly of section .text._ZN95_$LT$core..ptr..unique..Unique$LT$T$GT$$u20$as$u20$core..convert..From$LT$$RF$mut$u20$T$GT$$GT$4from17hf0a72ea7b4162721E:

00000000800020ae <_ZN95_$LT$core..ptr..unique..Unique$LT$T$GT$$u20$as$u20$core..convert..From$LT$$RF$mut$u20$T$GT$$GT$4from17hf0a72ea7b4162721E>:
    fn from(reference: &mut T) -> Self {
    800020ae:	1101                	addi	sp,sp,-32
    800020b0:	ec2a                	sd	a0,24(sp)
        unsafe { Unique { pointer: reference as *mut T, _marker: PhantomData } }
    800020b2:	e42a                	sd	a0,8(sp)
    }
    800020b4:	6105                	addi	sp,sp,32
    800020b6:	8082                	ret

Disassembly of section .text._ZN95_$LT$core..ptr..unique..Unique$LT$T$GT$$u20$as$u20$core..convert..From$LT$$RF$mut$u20$T$GT$$GT$4from17hfda33f9aa45effc8E:

00000000800020b8 <_ZN95_$LT$core..ptr..unique..Unique$LT$T$GT$$u20$as$u20$core..convert..From$LT$$RF$mut$u20$T$GT$$GT$4from17hfda33f9aa45effc8E>:
    fn from(reference: &mut T) -> Self {
    800020b8:	1101                	addi	sp,sp,-32
    800020ba:	ec2a                	sd	a0,24(sp)
        unsafe { Unique { pointer: reference as *mut T, _marker: PhantomData } }
    800020bc:	e42a                	sd	a0,8(sp)
    }
    800020be:	6105                	addi	sp,sp,32
    800020c0:	8082                	ret

Disassembly of section .text._ZN6kernel4lock8spinlock17Spinlock$LT$T$GT$7acquire17h1ea99168cdebb0e1E:

00000000800020c2 <_ZN6kernel4lock8spinlock17Spinlock$LT$T$GT$7acquire17h1ea99168cdebb0e1E>:
            data: UnsafeCell::new(data)
        };
        lock
    }

    pub fn acquire(&self) -> SpinlockGuard<'_, T> {
    800020c2:	7171                	addi	sp,sp,-176
    800020c4:	f506                	sd	ra,168(sp)
    800020c6:	e0aa                	sd	a0,64(sp)

        push_off();
    800020c8:	0001c097          	auipc	ra,0x1c
    800020cc:	aec080e7          	jalr	-1300(ra) # 8001dbb4 <_ZN6kernel7process3cpu8push_off17hfa6b48b440145057E>
    800020d0:	a009                	j	800020d2 <_ZN6kernel4lock8spinlock17Spinlock$LT$T$GT$7acquire17h1ea99168cdebb0e1E+0x10>
        if self.holding() {
    800020d2:	6506                	ld	a0,64(sp)
    800020d4:	00001097          	auipc	ra,0x1
    800020d8:	4c4080e7          	jalr	1220(ra) # 80003598 <_ZN6kernel4lock8spinlock17Spinlock$LT$T$GT$7holding17h5a90bba8cbf8105fE>
    800020dc:	fc2a                	sd	a0,56(sp)
    800020de:	a009                	j	800020e0 <_ZN6kernel4lock8spinlock17Spinlock$LT$T$GT$7acquire17h1ea99168cdebb0e1E+0x1e>
    800020e0:	4501                	li	a0,0
    800020e2:	75e2                	ld	a1,56(sp)
    800020e4:	02a58163          	beq	a1,a0,80002106 <.LBB0_15+0x16>
    800020e8:	a009                	j	800020ea <_ZN6kernel4lock8spinlock17Spinlock$LT$T$GT$7acquire17h1ea99168cdebb0e1E+0x28>
            panic!("spinlock {} acquire", self.name);
    800020ea:	6506                	ld	a0,64(sp)
    800020ec:	e92a                	sd	a0,144(sp)
    800020ee:	f12a                	sd	a0,160(sp)

00000000800020f0 <.LBB0_15>:
    800020f0:	00006597          	auipc	a1,0x6
    800020f4:	c9258593          	addi	a1,a1,-878 # 80007d82 <_ZN44_$LT$$RF$T$u20$as$u20$core..fmt..Display$GT$3fmt17hf9f75f72a35e80d1E>
    800020f8:	00006097          	auipc	ra,0x6
    800020fc:	d3e080e7          	jalr	-706(ra) # 80007e36 <_ZN4core3fmt10ArgumentV13new17h8e1aa6c8ae6fe746E>
    80002100:	f82a                	sd	a0,48(sp)
    80002102:	f42e                	sd	a1,40(sp)
    80002104:	a011                	j	80002108 <.LBB0_15+0x18>
        }
        
        while self.locked.swap(true, Ordering::Acquire){
    80002106:	a825                	j	8000213e <.LBB0_17+0x14>
            panic!("spinlock {} acquire", self.name);
    80002108:	7542                	ld	a0,48(sp)
    8000210a:	e12a                	sd	a0,128(sp)
    8000210c:	75a2                	ld	a1,40(sp)
    8000210e:	e52e                	sd	a1,136(sp)

0000000080002110 <.LBB0_16>:
    80002110:	00022597          	auipc	a1,0x22
    80002114:	cb058593          	addi	a1,a1,-848 # 80023dc0 <.L__unnamed_1>
    80002118:	0888                	addi	a0,sp,80
    8000211a:	4609                	li	a2,2
    8000211c:	0114                	addi	a3,sp,128
    8000211e:	4705                	li	a4,1
    80002120:	00003097          	auipc	ra,0x3
    80002124:	604080e7          	jalr	1540(ra) # 80005724 <_ZN4core3fmt9Arguments6new_v117h32892f729fc3a992E>
    80002128:	a009                	j	8000212a <.LBB0_17>

000000008000212a <.LBB0_17>:
    8000212a:	00022597          	auipc	a1,0x22
    8000212e:	cce58593          	addi	a1,a1,-818 # 80023df8 <.L__unnamed_2>
    80002132:	0888                	addi	a0,sp,80
    80002134:	0001f097          	auipc	ra,0x1f
    80002138:	c02080e7          	jalr	-1022(ra) # 80020d36 <_ZN4core9panicking9panic_fmt17ha4e041b5d1f17023E>
    8000213c:	0000                	unimp
        while self.locked.swap(true, Ordering::Acquire){
    8000213e:	6506                	ld	a0,64(sp)
    80002140:	0561                	addi	a0,a0,24
    80002142:	4589                	li	a1,2
    80002144:	08b10f23          	sb	a1,158(sp)
    80002148:	4605                	li	a2,1
    8000214a:	f02e                	sd	a1,32(sp)
    8000214c:	85b2                	mv	a1,a2
    8000214e:	7602                	ld	a2,32(sp)
    80002150:	0000b097          	auipc	ra,0xb
    80002154:	e26080e7          	jalr	-474(ra) # 8000cf76 <_ZN4core4sync6atomic10AtomicBool4swap17h7315060b63cdc0a0E>
    80002158:	ec2a                	sd	a0,24(sp)
    8000215a:	a009                	j	8000215c <.LBB0_17+0x32>
    8000215c:	6562                	ld	a0,24(sp)
    8000215e:	e911                	bnez	a0,80002172 <.LBB0_17+0x48>
    80002160:	a009                	j	80002162 <.LBB0_17+0x38>
    80002162:	4511                	li	a0,4
            // Now we signals the processor that it is inside a busy-wait spin-loop 
            spin_loop();
        }
        fence(Ordering::SeqCst);
    80002164:	08a10fa3          	sb	a0,159(sp)
    80002168:	0000b097          	auipc	ra,0xb
    8000216c:	f16080e7          	jalr	-234(ra) # 8000d07e <_ZN4core4sync6atomic5fence17h0ebfb6bf819e864eE>
    80002170:	a039                	j	8000217e <.LBB0_17+0x54>
            spin_loop();
    80002172:	0000c097          	auipc	ra,0xc
    80002176:	bf8080e7          	jalr	-1032(ra) # 8000dd6a <_ZN4core4hint9spin_loop17h9f450d83d2974701E>
    8000217a:	a009                	j	8000217c <.LBB0_17+0x52>
        while self.locked.swap(true, Ordering::Acquire){
    8000217c:	b7c9                	j	8000213e <.LBB0_17+0x14>
        unsafe {
            self.cpu_id.set(cpuid() as isize);
    8000217e:	6506                	ld	a0,64(sp)
    80002180:	0541                	addi	a0,a0,16
    80002182:	e82a                	sd	a0,16(sp)
    80002184:	0001b097          	auipc	ra,0x1b
    80002188:	54c080e7          	jalr	1356(ra) # 8001d6d0 <_ZN6kernel7process3cpu5cpuid17h5f316aa1ea26c654E>
    8000218c:	e42a                	sd	a0,8(sp)
    8000218e:	a009                	j	80002190 <.LBB0_17+0x66>
    80002190:	6542                	ld	a0,16(sp)
    80002192:	65a2                	ld	a1,8(sp)
    80002194:	00014097          	auipc	ra,0x14
    80002198:	6de080e7          	jalr	1758(ra) # 80016872 <_ZN4core4cell13Cell$LT$T$GT$3set17hc3ac7665606696e2E>
    8000219c:	a009                	j	8000219e <.LBB0_17+0x74>
        }

        SpinlockGuard{spinlock: &self}
    8000219e:	6506                	ld	a0,64(sp)
    800021a0:	e4aa                	sd	a0,72(sp)
    }
    800021a2:	70aa                	ld	ra,168(sp)
    800021a4:	614d                	addi	sp,sp,176
    800021a6:	8082                	ret

Disassembly of section .text._ZN6kernel4lock8spinlock17Spinlock$LT$T$GT$7acquire17h3ed0a9095f9c2c3fE:

00000000800021a8 <_ZN6kernel4lock8spinlock17Spinlock$LT$T$GT$7acquire17h3ed0a9095f9c2c3fE>:
    pub fn acquire(&self) -> SpinlockGuard<'_, T> {
    800021a8:	7171                	addi	sp,sp,-176
    800021aa:	f506                	sd	ra,168(sp)
    800021ac:	e0aa                	sd	a0,64(sp)
        push_off();
    800021ae:	0001c097          	auipc	ra,0x1c
    800021b2:	a06080e7          	jalr	-1530(ra) # 8001dbb4 <_ZN6kernel7process3cpu8push_off17hfa6b48b440145057E>
    800021b6:	a009                	j	800021b8 <_ZN6kernel4lock8spinlock17Spinlock$LT$T$GT$7acquire17h3ed0a9095f9c2c3fE+0x10>
        if self.holding() {
    800021b8:	6506                	ld	a0,64(sp)
    800021ba:	00001097          	auipc	ra,0x1
    800021be:	1d6080e7          	jalr	470(ra) # 80003390 <_ZN6kernel4lock8spinlock17Spinlock$LT$T$GT$7holding17h1eebf6e52373c52cE>
    800021c2:	fc2a                	sd	a0,56(sp)
    800021c4:	a009                	j	800021c6 <_ZN6kernel4lock8spinlock17Spinlock$LT$T$GT$7acquire17h3ed0a9095f9c2c3fE+0x1e>
    800021c6:	4501                	li	a0,0
    800021c8:	75e2                	ld	a1,56(sp)
    800021ca:	02a58163          	beq	a1,a0,800021ec <.LBB1_15+0x16>
    800021ce:	a009                	j	800021d0 <_ZN6kernel4lock8spinlock17Spinlock$LT$T$GT$7acquire17h3ed0a9095f9c2c3fE+0x28>
            panic!("spinlock {} acquire", self.name);
    800021d0:	6506                	ld	a0,64(sp)
    800021d2:	e92a                	sd	a0,144(sp)
    800021d4:	f12a                	sd	a0,160(sp)

00000000800021d6 <.LBB1_15>:
    800021d6:	00006597          	auipc	a1,0x6
    800021da:	bac58593          	addi	a1,a1,-1108 # 80007d82 <_ZN44_$LT$$RF$T$u20$as$u20$core..fmt..Display$GT$3fmt17hf9f75f72a35e80d1E>
    800021de:	00006097          	auipc	ra,0x6
    800021e2:	c58080e7          	jalr	-936(ra) # 80007e36 <_ZN4core3fmt10ArgumentV13new17h8e1aa6c8ae6fe746E>
    800021e6:	f82a                	sd	a0,48(sp)
    800021e8:	f42e                	sd	a1,40(sp)
    800021ea:	a011                	j	800021ee <.LBB1_15+0x18>
        while self.locked.swap(true, Ordering::Acquire){
    800021ec:	a825                	j	80002224 <.LBB1_17+0x14>
            panic!("spinlock {} acquire", self.name);
    800021ee:	7542                	ld	a0,48(sp)
    800021f0:	e12a                	sd	a0,128(sp)
    800021f2:	75a2                	ld	a1,40(sp)
    800021f4:	e52e                	sd	a1,136(sp)

00000000800021f6 <.LBB1_16>:
    800021f6:	00022597          	auipc	a1,0x22
    800021fa:	bca58593          	addi	a1,a1,-1078 # 80023dc0 <.L__unnamed_1>
    800021fe:	0888                	addi	a0,sp,80
    80002200:	4609                	li	a2,2
    80002202:	0114                	addi	a3,sp,128
    80002204:	4705                	li	a4,1
    80002206:	00003097          	auipc	ra,0x3
    8000220a:	51e080e7          	jalr	1310(ra) # 80005724 <_ZN4core3fmt9Arguments6new_v117h32892f729fc3a992E>
    8000220e:	a009                	j	80002210 <.LBB1_17>

0000000080002210 <.LBB1_17>:
    80002210:	00022597          	auipc	a1,0x22
    80002214:	be858593          	addi	a1,a1,-1048 # 80023df8 <.L__unnamed_2>
    80002218:	0888                	addi	a0,sp,80
    8000221a:	0001f097          	auipc	ra,0x1f
    8000221e:	b1c080e7          	jalr	-1252(ra) # 80020d36 <_ZN4core9panicking9panic_fmt17ha4e041b5d1f17023E>
    80002222:	0000                	unimp
        while self.locked.swap(true, Ordering::Acquire){
    80002224:	6506                	ld	a0,64(sp)
    80002226:	0561                	addi	a0,a0,24
    80002228:	4589                	li	a1,2
    8000222a:	08b10f23          	sb	a1,158(sp)
    8000222e:	4605                	li	a2,1
    80002230:	f02e                	sd	a1,32(sp)
    80002232:	85b2                	mv	a1,a2
    80002234:	7602                	ld	a2,32(sp)
    80002236:	0000b097          	auipc	ra,0xb
    8000223a:	d40080e7          	jalr	-704(ra) # 8000cf76 <_ZN4core4sync6atomic10AtomicBool4swap17h7315060b63cdc0a0E>
    8000223e:	ec2a                	sd	a0,24(sp)
    80002240:	a009                	j	80002242 <.LBB1_17+0x32>
    80002242:	6562                	ld	a0,24(sp)
    80002244:	e911                	bnez	a0,80002258 <.LBB1_17+0x48>
    80002246:	a009                	j	80002248 <.LBB1_17+0x38>
    80002248:	4511                	li	a0,4
        fence(Ordering::SeqCst);
    8000224a:	08a10fa3          	sb	a0,159(sp)
    8000224e:	0000b097          	auipc	ra,0xb
    80002252:	e30080e7          	jalr	-464(ra) # 8000d07e <_ZN4core4sync6atomic5fence17h0ebfb6bf819e864eE>
    80002256:	a039                	j	80002264 <.LBB1_17+0x54>
            spin_loop();
    80002258:	0000c097          	auipc	ra,0xc
    8000225c:	b12080e7          	jalr	-1262(ra) # 8000dd6a <_ZN4core4hint9spin_loop17h9f450d83d2974701E>
    80002260:	a009                	j	80002262 <.LBB1_17+0x52>
        while self.locked.swap(true, Ordering::Acquire){
    80002262:	b7c9                	j	80002224 <.LBB1_17+0x14>
            self.cpu_id.set(cpuid() as isize);
    80002264:	6506                	ld	a0,64(sp)
    80002266:	0541                	addi	a0,a0,16
    80002268:	e82a                	sd	a0,16(sp)
    8000226a:	0001b097          	auipc	ra,0x1b
    8000226e:	466080e7          	jalr	1126(ra) # 8001d6d0 <_ZN6kernel7process3cpu5cpuid17h5f316aa1ea26c654E>
    80002272:	e42a                	sd	a0,8(sp)
    80002274:	a009                	j	80002276 <.LBB1_17+0x66>
    80002276:	6542                	ld	a0,16(sp)
    80002278:	65a2                	ld	a1,8(sp)
    8000227a:	00014097          	auipc	ra,0x14
    8000227e:	5f8080e7          	jalr	1528(ra) # 80016872 <_ZN4core4cell13Cell$LT$T$GT$3set17hc3ac7665606696e2E>
    80002282:	a009                	j	80002284 <.LBB1_17+0x74>
        SpinlockGuard{spinlock: &self}
    80002284:	6506                	ld	a0,64(sp)
    80002286:	e4aa                	sd	a0,72(sp)
    }
    80002288:	70aa                	ld	ra,168(sp)
    8000228a:	614d                	addi	sp,sp,176
    8000228c:	8082                	ret

Disassembly of section .text._ZN6kernel4lock8spinlock17Spinlock$LT$T$GT$7acquire17h40045d76933e66b9E:

000000008000228e <_ZN6kernel4lock8spinlock17Spinlock$LT$T$GT$7acquire17h40045d76933e66b9E>:
    pub fn acquire(&self) -> SpinlockGuard<'_, T> {
    8000228e:	7171                	addi	sp,sp,-176
    80002290:	f506                	sd	ra,168(sp)
    80002292:	e0aa                	sd	a0,64(sp)
        push_off();
    80002294:	0001c097          	auipc	ra,0x1c
    80002298:	920080e7          	jalr	-1760(ra) # 8001dbb4 <_ZN6kernel7process3cpu8push_off17hfa6b48b440145057E>
    8000229c:	a009                	j	8000229e <_ZN6kernel4lock8spinlock17Spinlock$LT$T$GT$7acquire17h40045d76933e66b9E+0x10>
        if self.holding() {
    8000229e:	6506                	ld	a0,64(sp)
    800022a0:	00001097          	auipc	ra,0x1
    800022a4:	47e080e7          	jalr	1150(ra) # 8000371e <_ZN6kernel4lock8spinlock17Spinlock$LT$T$GT$7holding17he43f41ceeb6d2160E>
    800022a8:	fc2a                	sd	a0,56(sp)
    800022aa:	a009                	j	800022ac <_ZN6kernel4lock8spinlock17Spinlock$LT$T$GT$7acquire17h40045d76933e66b9E+0x1e>
    800022ac:	4501                	li	a0,0
    800022ae:	75e2                	ld	a1,56(sp)
    800022b0:	02a58163          	beq	a1,a0,800022d2 <.LBB2_15+0x16>
    800022b4:	a009                	j	800022b6 <_ZN6kernel4lock8spinlock17Spinlock$LT$T$GT$7acquire17h40045d76933e66b9E+0x28>
            panic!("spinlock {} acquire", self.name);
    800022b6:	6506                	ld	a0,64(sp)
    800022b8:	e92a                	sd	a0,144(sp)
    800022ba:	f12a                	sd	a0,160(sp)

00000000800022bc <.LBB2_15>:
    800022bc:	00006597          	auipc	a1,0x6
    800022c0:	ac658593          	addi	a1,a1,-1338 # 80007d82 <_ZN44_$LT$$RF$T$u20$as$u20$core..fmt..Display$GT$3fmt17hf9f75f72a35e80d1E>
    800022c4:	00006097          	auipc	ra,0x6
    800022c8:	b72080e7          	jalr	-1166(ra) # 80007e36 <_ZN4core3fmt10ArgumentV13new17h8e1aa6c8ae6fe746E>
    800022cc:	f82a                	sd	a0,48(sp)
    800022ce:	f42e                	sd	a1,40(sp)
    800022d0:	a011                	j	800022d4 <.LBB2_15+0x18>
        while self.locked.swap(true, Ordering::Acquire){
    800022d2:	a825                	j	8000230a <.LBB2_17+0x14>
            panic!("spinlock {} acquire", self.name);
    800022d4:	7542                	ld	a0,48(sp)
    800022d6:	e12a                	sd	a0,128(sp)
    800022d8:	75a2                	ld	a1,40(sp)
    800022da:	e52e                	sd	a1,136(sp)

00000000800022dc <.LBB2_16>:
    800022dc:	00022597          	auipc	a1,0x22
    800022e0:	ae458593          	addi	a1,a1,-1308 # 80023dc0 <.L__unnamed_1>
    800022e4:	0888                	addi	a0,sp,80
    800022e6:	4609                	li	a2,2
    800022e8:	0114                	addi	a3,sp,128
    800022ea:	4705                	li	a4,1
    800022ec:	00003097          	auipc	ra,0x3
    800022f0:	438080e7          	jalr	1080(ra) # 80005724 <_ZN4core3fmt9Arguments6new_v117h32892f729fc3a992E>
    800022f4:	a009                	j	800022f6 <.LBB2_17>

00000000800022f6 <.LBB2_17>:
    800022f6:	00022597          	auipc	a1,0x22
    800022fa:	b0258593          	addi	a1,a1,-1278 # 80023df8 <.L__unnamed_2>
    800022fe:	0888                	addi	a0,sp,80
    80002300:	0001f097          	auipc	ra,0x1f
    80002304:	a36080e7          	jalr	-1482(ra) # 80020d36 <_ZN4core9panicking9panic_fmt17ha4e041b5d1f17023E>
    80002308:	0000                	unimp
        while self.locked.swap(true, Ordering::Acquire){
    8000230a:	6506                	ld	a0,64(sp)
    8000230c:	0561                	addi	a0,a0,24
    8000230e:	4589                	li	a1,2
    80002310:	08b10f23          	sb	a1,158(sp)
    80002314:	4605                	li	a2,1
    80002316:	f02e                	sd	a1,32(sp)
    80002318:	85b2                	mv	a1,a2
    8000231a:	7602                	ld	a2,32(sp)
    8000231c:	0000b097          	auipc	ra,0xb
    80002320:	c5a080e7          	jalr	-934(ra) # 8000cf76 <_ZN4core4sync6atomic10AtomicBool4swap17h7315060b63cdc0a0E>
    80002324:	ec2a                	sd	a0,24(sp)
    80002326:	a009                	j	80002328 <.LBB2_17+0x32>
    80002328:	6562                	ld	a0,24(sp)
    8000232a:	e911                	bnez	a0,8000233e <.LBB2_17+0x48>
    8000232c:	a009                	j	8000232e <.LBB2_17+0x38>
    8000232e:	4511                	li	a0,4
        fence(Ordering::SeqCst);
    80002330:	08a10fa3          	sb	a0,159(sp)
    80002334:	0000b097          	auipc	ra,0xb
    80002338:	d4a080e7          	jalr	-694(ra) # 8000d07e <_ZN4core4sync6atomic5fence17h0ebfb6bf819e864eE>
    8000233c:	a039                	j	8000234a <.LBB2_17+0x54>
            spin_loop();
    8000233e:	0000c097          	auipc	ra,0xc
    80002342:	a2c080e7          	jalr	-1492(ra) # 8000dd6a <_ZN4core4hint9spin_loop17h9f450d83d2974701E>
    80002346:	a009                	j	80002348 <.LBB2_17+0x52>
        while self.locked.swap(true, Ordering::Acquire){
    80002348:	b7c9                	j	8000230a <.LBB2_17+0x14>
            self.cpu_id.set(cpuid() as isize);
    8000234a:	6506                	ld	a0,64(sp)
    8000234c:	0541                	addi	a0,a0,16
    8000234e:	e82a                	sd	a0,16(sp)
    80002350:	0001b097          	auipc	ra,0x1b
    80002354:	380080e7          	jalr	896(ra) # 8001d6d0 <_ZN6kernel7process3cpu5cpuid17h5f316aa1ea26c654E>
    80002358:	e42a                	sd	a0,8(sp)
    8000235a:	a009                	j	8000235c <.LBB2_17+0x66>
    8000235c:	6542                	ld	a0,16(sp)
    8000235e:	65a2                	ld	a1,8(sp)
    80002360:	00014097          	auipc	ra,0x14
    80002364:	512080e7          	jalr	1298(ra) # 80016872 <_ZN4core4cell13Cell$LT$T$GT$3set17hc3ac7665606696e2E>
    80002368:	a009                	j	8000236a <.LBB2_17+0x74>
        SpinlockGuard{spinlock: &self}
    8000236a:	6506                	ld	a0,64(sp)
    8000236c:	e4aa                	sd	a0,72(sp)
    }
    8000236e:	70aa                	ld	ra,168(sp)
    80002370:	614d                	addi	sp,sp,176
    80002372:	8082                	ret

Disassembly of section .text._ZN6kernel4lock8spinlock17Spinlock$LT$T$GT$7acquire17h78d3db676a864a1bE:

0000000080002374 <_ZN6kernel4lock8spinlock17Spinlock$LT$T$GT$7acquire17h78d3db676a864a1bE>:
    pub fn acquire(&self) -> SpinlockGuard<'_, T> {
    80002374:	7171                	addi	sp,sp,-176
    80002376:	f506                	sd	ra,168(sp)
    80002378:	e0aa                	sd	a0,64(sp)
        push_off();
    8000237a:	0001c097          	auipc	ra,0x1c
    8000237e:	83a080e7          	jalr	-1990(ra) # 8001dbb4 <_ZN6kernel7process3cpu8push_off17hfa6b48b440145057E>
    80002382:	a009                	j	80002384 <_ZN6kernel4lock8spinlock17Spinlock$LT$T$GT$7acquire17h78d3db676a864a1bE+0x10>
        if self.holding() {
    80002384:	6506                	ld	a0,64(sp)
    80002386:	00001097          	auipc	ra,0x1
    8000238a:	190080e7          	jalr	400(ra) # 80003516 <_ZN6kernel4lock8spinlock17Spinlock$LT$T$GT$7holding17h59971422c37849b4E>
    8000238e:	fc2a                	sd	a0,56(sp)
    80002390:	a009                	j	80002392 <_ZN6kernel4lock8spinlock17Spinlock$LT$T$GT$7acquire17h78d3db676a864a1bE+0x1e>
    80002392:	4501                	li	a0,0
    80002394:	75e2                	ld	a1,56(sp)
    80002396:	02a58163          	beq	a1,a0,800023b8 <.LBB3_15+0x16>
    8000239a:	a009                	j	8000239c <_ZN6kernel4lock8spinlock17Spinlock$LT$T$GT$7acquire17h78d3db676a864a1bE+0x28>
            panic!("spinlock {} acquire", self.name);
    8000239c:	6506                	ld	a0,64(sp)
    8000239e:	e92a                	sd	a0,144(sp)
    800023a0:	f12a                	sd	a0,160(sp)

00000000800023a2 <.LBB3_15>:
    800023a2:	00006597          	auipc	a1,0x6
    800023a6:	9e058593          	addi	a1,a1,-1568 # 80007d82 <_ZN44_$LT$$RF$T$u20$as$u20$core..fmt..Display$GT$3fmt17hf9f75f72a35e80d1E>
    800023aa:	00006097          	auipc	ra,0x6
    800023ae:	a8c080e7          	jalr	-1396(ra) # 80007e36 <_ZN4core3fmt10ArgumentV13new17h8e1aa6c8ae6fe746E>
    800023b2:	f82a                	sd	a0,48(sp)
    800023b4:	f42e                	sd	a1,40(sp)
    800023b6:	a011                	j	800023ba <.LBB3_15+0x18>
        while self.locked.swap(true, Ordering::Acquire){
    800023b8:	a825                	j	800023f0 <.LBB3_17+0x14>
            panic!("spinlock {} acquire", self.name);
    800023ba:	7542                	ld	a0,48(sp)
    800023bc:	e12a                	sd	a0,128(sp)
    800023be:	75a2                	ld	a1,40(sp)
    800023c0:	e52e                	sd	a1,136(sp)

00000000800023c2 <.LBB3_16>:
    800023c2:	00022597          	auipc	a1,0x22
    800023c6:	9fe58593          	addi	a1,a1,-1538 # 80023dc0 <.L__unnamed_1>
    800023ca:	0888                	addi	a0,sp,80
    800023cc:	4609                	li	a2,2
    800023ce:	0114                	addi	a3,sp,128
    800023d0:	4705                	li	a4,1
    800023d2:	00003097          	auipc	ra,0x3
    800023d6:	352080e7          	jalr	850(ra) # 80005724 <_ZN4core3fmt9Arguments6new_v117h32892f729fc3a992E>
    800023da:	a009                	j	800023dc <.LBB3_17>

00000000800023dc <.LBB3_17>:
    800023dc:	00022597          	auipc	a1,0x22
    800023e0:	a1c58593          	addi	a1,a1,-1508 # 80023df8 <.L__unnamed_2>
    800023e4:	0888                	addi	a0,sp,80
    800023e6:	0001f097          	auipc	ra,0x1f
    800023ea:	950080e7          	jalr	-1712(ra) # 80020d36 <_ZN4core9panicking9panic_fmt17ha4e041b5d1f17023E>
    800023ee:	0000                	unimp
        while self.locked.swap(true, Ordering::Acquire){
    800023f0:	6506                	ld	a0,64(sp)
    800023f2:	0561                	addi	a0,a0,24
    800023f4:	4589                	li	a1,2
    800023f6:	08b10f23          	sb	a1,158(sp)
    800023fa:	4605                	li	a2,1
    800023fc:	f02e                	sd	a1,32(sp)
    800023fe:	85b2                	mv	a1,a2
    80002400:	7602                	ld	a2,32(sp)
    80002402:	0000b097          	auipc	ra,0xb
    80002406:	b74080e7          	jalr	-1164(ra) # 8000cf76 <_ZN4core4sync6atomic10AtomicBool4swap17h7315060b63cdc0a0E>
    8000240a:	ec2a                	sd	a0,24(sp)
    8000240c:	a009                	j	8000240e <.LBB3_17+0x32>
    8000240e:	6562                	ld	a0,24(sp)
    80002410:	e911                	bnez	a0,80002424 <.LBB3_17+0x48>
    80002412:	a009                	j	80002414 <.LBB3_17+0x38>
    80002414:	4511                	li	a0,4
        fence(Ordering::SeqCst);
    80002416:	08a10fa3          	sb	a0,159(sp)
    8000241a:	0000b097          	auipc	ra,0xb
    8000241e:	c64080e7          	jalr	-924(ra) # 8000d07e <_ZN4core4sync6atomic5fence17h0ebfb6bf819e864eE>
    80002422:	a039                	j	80002430 <.LBB3_17+0x54>
            spin_loop();
    80002424:	0000c097          	auipc	ra,0xc
    80002428:	946080e7          	jalr	-1722(ra) # 8000dd6a <_ZN4core4hint9spin_loop17h9f450d83d2974701E>
    8000242c:	a009                	j	8000242e <.LBB3_17+0x52>
        while self.locked.swap(true, Ordering::Acquire){
    8000242e:	b7c9                	j	800023f0 <.LBB3_17+0x14>
            self.cpu_id.set(cpuid() as isize);
    80002430:	6506                	ld	a0,64(sp)
    80002432:	0541                	addi	a0,a0,16
    80002434:	e82a                	sd	a0,16(sp)
    80002436:	0001b097          	auipc	ra,0x1b
    8000243a:	29a080e7          	jalr	666(ra) # 8001d6d0 <_ZN6kernel7process3cpu5cpuid17h5f316aa1ea26c654E>
    8000243e:	e42a                	sd	a0,8(sp)
    80002440:	a009                	j	80002442 <.LBB3_17+0x66>
    80002442:	6542                	ld	a0,16(sp)
    80002444:	65a2                	ld	a1,8(sp)
    80002446:	00014097          	auipc	ra,0x14
    8000244a:	42c080e7          	jalr	1068(ra) # 80016872 <_ZN4core4cell13Cell$LT$T$GT$3set17hc3ac7665606696e2E>
    8000244e:	a009                	j	80002450 <.LBB3_17+0x74>
        SpinlockGuard{spinlock: &self}
    80002450:	6506                	ld	a0,64(sp)
    80002452:	e4aa                	sd	a0,72(sp)
    }
    80002454:	70aa                	ld	ra,168(sp)
    80002456:	614d                	addi	sp,sp,176
    80002458:	8082                	ret

Disassembly of section .text._ZN6kernel4lock8spinlock17Spinlock$LT$T$GT$7acquire17h7f3033c38eae9d66E:

000000008000245a <_ZN6kernel4lock8spinlock17Spinlock$LT$T$GT$7acquire17h7f3033c38eae9d66E>:
    pub fn acquire(&self) -> SpinlockGuard<'_, T> {
    8000245a:	7171                	addi	sp,sp,-176
    8000245c:	f506                	sd	ra,168(sp)
    8000245e:	e0aa                	sd	a0,64(sp)
        push_off();
    80002460:	0001b097          	auipc	ra,0x1b
    80002464:	754080e7          	jalr	1876(ra) # 8001dbb4 <_ZN6kernel7process3cpu8push_off17hfa6b48b440145057E>
    80002468:	a009                	j	8000246a <_ZN6kernel4lock8spinlock17Spinlock$LT$T$GT$7acquire17h7f3033c38eae9d66E+0x10>
        if self.holding() {
    8000246a:	6506                	ld	a0,64(sp)
    8000246c:	00001097          	auipc	ra,0x1
    80002470:	230080e7          	jalr	560(ra) # 8000369c <_ZN6kernel4lock8spinlock17Spinlock$LT$T$GT$7holding17hd5fa1faa827a49a9E>
    80002474:	fc2a                	sd	a0,56(sp)
    80002476:	a009                	j	80002478 <_ZN6kernel4lock8spinlock17Spinlock$LT$T$GT$7acquire17h7f3033c38eae9d66E+0x1e>
    80002478:	4501                	li	a0,0
    8000247a:	75e2                	ld	a1,56(sp)
    8000247c:	02a58163          	beq	a1,a0,8000249e <.LBB4_15+0x16>
    80002480:	a009                	j	80002482 <_ZN6kernel4lock8spinlock17Spinlock$LT$T$GT$7acquire17h7f3033c38eae9d66E+0x28>
            panic!("spinlock {} acquire", self.name);
    80002482:	6506                	ld	a0,64(sp)
    80002484:	e92a                	sd	a0,144(sp)
    80002486:	f12a                	sd	a0,160(sp)

0000000080002488 <.LBB4_15>:
    80002488:	00006597          	auipc	a1,0x6
    8000248c:	8fa58593          	addi	a1,a1,-1798 # 80007d82 <_ZN44_$LT$$RF$T$u20$as$u20$core..fmt..Display$GT$3fmt17hf9f75f72a35e80d1E>
    80002490:	00006097          	auipc	ra,0x6
    80002494:	9a6080e7          	jalr	-1626(ra) # 80007e36 <_ZN4core3fmt10ArgumentV13new17h8e1aa6c8ae6fe746E>
    80002498:	f82a                	sd	a0,48(sp)
    8000249a:	f42e                	sd	a1,40(sp)
    8000249c:	a011                	j	800024a0 <.LBB4_15+0x18>
        while self.locked.swap(true, Ordering::Acquire){
    8000249e:	a825                	j	800024d6 <.LBB4_17+0x14>
            panic!("spinlock {} acquire", self.name);
    800024a0:	7542                	ld	a0,48(sp)
    800024a2:	e12a                	sd	a0,128(sp)
    800024a4:	75a2                	ld	a1,40(sp)
    800024a6:	e52e                	sd	a1,136(sp)

00000000800024a8 <.LBB4_16>:
    800024a8:	00022597          	auipc	a1,0x22
    800024ac:	91858593          	addi	a1,a1,-1768 # 80023dc0 <.L__unnamed_1>
    800024b0:	0888                	addi	a0,sp,80
    800024b2:	4609                	li	a2,2
    800024b4:	0114                	addi	a3,sp,128
    800024b6:	4705                	li	a4,1
    800024b8:	00003097          	auipc	ra,0x3
    800024bc:	26c080e7          	jalr	620(ra) # 80005724 <_ZN4core3fmt9Arguments6new_v117h32892f729fc3a992E>
    800024c0:	a009                	j	800024c2 <.LBB4_17>

00000000800024c2 <.LBB4_17>:
    800024c2:	00022597          	auipc	a1,0x22
    800024c6:	93658593          	addi	a1,a1,-1738 # 80023df8 <.L__unnamed_2>
    800024ca:	0888                	addi	a0,sp,80
    800024cc:	0001f097          	auipc	ra,0x1f
    800024d0:	86a080e7          	jalr	-1942(ra) # 80020d36 <_ZN4core9panicking9panic_fmt17ha4e041b5d1f17023E>
    800024d4:	0000                	unimp
        while self.locked.swap(true, Ordering::Acquire){
    800024d6:	6506                	ld	a0,64(sp)
    800024d8:	0561                	addi	a0,a0,24
    800024da:	4589                	li	a1,2
    800024dc:	08b10f23          	sb	a1,158(sp)
    800024e0:	4605                	li	a2,1
    800024e2:	f02e                	sd	a1,32(sp)
    800024e4:	85b2                	mv	a1,a2
    800024e6:	7602                	ld	a2,32(sp)
    800024e8:	0000b097          	auipc	ra,0xb
    800024ec:	a8e080e7          	jalr	-1394(ra) # 8000cf76 <_ZN4core4sync6atomic10AtomicBool4swap17h7315060b63cdc0a0E>
    800024f0:	ec2a                	sd	a0,24(sp)
    800024f2:	a009                	j	800024f4 <.LBB4_17+0x32>
    800024f4:	6562                	ld	a0,24(sp)
    800024f6:	e911                	bnez	a0,8000250a <.LBB4_17+0x48>
    800024f8:	a009                	j	800024fa <.LBB4_17+0x38>
    800024fa:	4511                	li	a0,4
        fence(Ordering::SeqCst);
    800024fc:	08a10fa3          	sb	a0,159(sp)
    80002500:	0000b097          	auipc	ra,0xb
    80002504:	b7e080e7          	jalr	-1154(ra) # 8000d07e <_ZN4core4sync6atomic5fence17h0ebfb6bf819e864eE>
    80002508:	a039                	j	80002516 <.LBB4_17+0x54>
            spin_loop();
    8000250a:	0000c097          	auipc	ra,0xc
    8000250e:	860080e7          	jalr	-1952(ra) # 8000dd6a <_ZN4core4hint9spin_loop17h9f450d83d2974701E>
    80002512:	a009                	j	80002514 <.LBB4_17+0x52>
        while self.locked.swap(true, Ordering::Acquire){
    80002514:	b7c9                	j	800024d6 <.LBB4_17+0x14>
            self.cpu_id.set(cpuid() as isize);
    80002516:	6506                	ld	a0,64(sp)
    80002518:	0541                	addi	a0,a0,16
    8000251a:	e82a                	sd	a0,16(sp)
    8000251c:	0001b097          	auipc	ra,0x1b
    80002520:	1b4080e7          	jalr	436(ra) # 8001d6d0 <_ZN6kernel7process3cpu5cpuid17h5f316aa1ea26c654E>
    80002524:	e42a                	sd	a0,8(sp)
    80002526:	a009                	j	80002528 <.LBB4_17+0x66>
    80002528:	6542                	ld	a0,16(sp)
    8000252a:	65a2                	ld	a1,8(sp)
    8000252c:	00014097          	auipc	ra,0x14
    80002530:	346080e7          	jalr	838(ra) # 80016872 <_ZN4core4cell13Cell$LT$T$GT$3set17hc3ac7665606696e2E>
    80002534:	a009                	j	80002536 <.LBB4_17+0x74>
        SpinlockGuard{spinlock: &self}
    80002536:	6506                	ld	a0,64(sp)
    80002538:	e4aa                	sd	a0,72(sp)
    }
    8000253a:	70aa                	ld	ra,168(sp)
    8000253c:	614d                	addi	sp,sp,176
    8000253e:	8082                	ret

Disassembly of section .text._ZN6kernel4lock8spinlock17Spinlock$LT$T$GT$7acquire17h81cc64e5f1a97b0cE:

0000000080002540 <_ZN6kernel4lock8spinlock17Spinlock$LT$T$GT$7acquire17h81cc64e5f1a97b0cE>:
    pub fn acquire(&self) -> SpinlockGuard<'_, T> {
    80002540:	7171                	addi	sp,sp,-176
    80002542:	f506                	sd	ra,168(sp)
    80002544:	e0aa                	sd	a0,64(sp)
        push_off();
    80002546:	0001b097          	auipc	ra,0x1b
    8000254a:	66e080e7          	jalr	1646(ra) # 8001dbb4 <_ZN6kernel7process3cpu8push_off17hfa6b48b440145057E>
    8000254e:	a009                	j	80002550 <_ZN6kernel4lock8spinlock17Spinlock$LT$T$GT$7acquire17h81cc64e5f1a97b0cE+0x10>
        if self.holding() {
    80002550:	6506                	ld	a0,64(sp)
    80002552:	00001097          	auipc	ra,0x1
    80002556:	d3a080e7          	jalr	-710(ra) # 8000328c <_ZN6kernel4lock8spinlock17Spinlock$LT$T$GT$7holding17h057493ae1eb3d720E>
    8000255a:	fc2a                	sd	a0,56(sp)
    8000255c:	a009                	j	8000255e <_ZN6kernel4lock8spinlock17Spinlock$LT$T$GT$7acquire17h81cc64e5f1a97b0cE+0x1e>
    8000255e:	4501                	li	a0,0
    80002560:	75e2                	ld	a1,56(sp)
    80002562:	02a58163          	beq	a1,a0,80002584 <.LBB5_15+0x16>
    80002566:	a009                	j	80002568 <_ZN6kernel4lock8spinlock17Spinlock$LT$T$GT$7acquire17h81cc64e5f1a97b0cE+0x28>
            panic!("spinlock {} acquire", self.name);
    80002568:	6506                	ld	a0,64(sp)
    8000256a:	e92a                	sd	a0,144(sp)
    8000256c:	f12a                	sd	a0,160(sp)

000000008000256e <.LBB5_15>:
    8000256e:	00006597          	auipc	a1,0x6
    80002572:	81458593          	addi	a1,a1,-2028 # 80007d82 <_ZN44_$LT$$RF$T$u20$as$u20$core..fmt..Display$GT$3fmt17hf9f75f72a35e80d1E>
    80002576:	00006097          	auipc	ra,0x6
    8000257a:	8c0080e7          	jalr	-1856(ra) # 80007e36 <_ZN4core3fmt10ArgumentV13new17h8e1aa6c8ae6fe746E>
    8000257e:	f82a                	sd	a0,48(sp)
    80002580:	f42e                	sd	a1,40(sp)
    80002582:	a011                	j	80002586 <.LBB5_15+0x18>
        while self.locked.swap(true, Ordering::Acquire){
    80002584:	a825                	j	800025bc <.LBB5_17+0x14>
            panic!("spinlock {} acquire", self.name);
    80002586:	7542                	ld	a0,48(sp)
    80002588:	e12a                	sd	a0,128(sp)
    8000258a:	75a2                	ld	a1,40(sp)
    8000258c:	e52e                	sd	a1,136(sp)

000000008000258e <.LBB5_16>:
    8000258e:	00022597          	auipc	a1,0x22
    80002592:	83258593          	addi	a1,a1,-1998 # 80023dc0 <.L__unnamed_1>
    80002596:	0888                	addi	a0,sp,80
    80002598:	4609                	li	a2,2
    8000259a:	0114                	addi	a3,sp,128
    8000259c:	4705                	li	a4,1
    8000259e:	00003097          	auipc	ra,0x3
    800025a2:	186080e7          	jalr	390(ra) # 80005724 <_ZN4core3fmt9Arguments6new_v117h32892f729fc3a992E>
    800025a6:	a009                	j	800025a8 <.LBB5_17>

00000000800025a8 <.LBB5_17>:
    800025a8:	00022597          	auipc	a1,0x22
    800025ac:	85058593          	addi	a1,a1,-1968 # 80023df8 <.L__unnamed_2>
    800025b0:	0888                	addi	a0,sp,80
    800025b2:	0001e097          	auipc	ra,0x1e
    800025b6:	784080e7          	jalr	1924(ra) # 80020d36 <_ZN4core9panicking9panic_fmt17ha4e041b5d1f17023E>
    800025ba:	0000                	unimp
        while self.locked.swap(true, Ordering::Acquire){
    800025bc:	6506                	ld	a0,64(sp)
    800025be:	0561                	addi	a0,a0,24
    800025c0:	4589                	li	a1,2
    800025c2:	08b10f23          	sb	a1,158(sp)
    800025c6:	4605                	li	a2,1
    800025c8:	f02e                	sd	a1,32(sp)
    800025ca:	85b2                	mv	a1,a2
    800025cc:	7602                	ld	a2,32(sp)
    800025ce:	0000b097          	auipc	ra,0xb
    800025d2:	9a8080e7          	jalr	-1624(ra) # 8000cf76 <_ZN4core4sync6atomic10AtomicBool4swap17h7315060b63cdc0a0E>
    800025d6:	ec2a                	sd	a0,24(sp)
    800025d8:	a009                	j	800025da <.LBB5_17+0x32>
    800025da:	6562                	ld	a0,24(sp)
    800025dc:	e911                	bnez	a0,800025f0 <.LBB5_17+0x48>
    800025de:	a009                	j	800025e0 <.LBB5_17+0x38>
    800025e0:	4511                	li	a0,4
        fence(Ordering::SeqCst);
    800025e2:	08a10fa3          	sb	a0,159(sp)
    800025e6:	0000b097          	auipc	ra,0xb
    800025ea:	a98080e7          	jalr	-1384(ra) # 8000d07e <_ZN4core4sync6atomic5fence17h0ebfb6bf819e864eE>
    800025ee:	a039                	j	800025fc <.LBB5_17+0x54>
            spin_loop();
    800025f0:	0000b097          	auipc	ra,0xb
    800025f4:	77a080e7          	jalr	1914(ra) # 8000dd6a <_ZN4core4hint9spin_loop17h9f450d83d2974701E>
    800025f8:	a009                	j	800025fa <.LBB5_17+0x52>
        while self.locked.swap(true, Ordering::Acquire){
    800025fa:	b7c9                	j	800025bc <.LBB5_17+0x14>
            self.cpu_id.set(cpuid() as isize);
    800025fc:	6506                	ld	a0,64(sp)
    800025fe:	0541                	addi	a0,a0,16
    80002600:	e82a                	sd	a0,16(sp)
    80002602:	0001b097          	auipc	ra,0x1b
    80002606:	0ce080e7          	jalr	206(ra) # 8001d6d0 <_ZN6kernel7process3cpu5cpuid17h5f316aa1ea26c654E>
    8000260a:	e42a                	sd	a0,8(sp)
    8000260c:	a009                	j	8000260e <.LBB5_17+0x66>
    8000260e:	6542                	ld	a0,16(sp)
    80002610:	65a2                	ld	a1,8(sp)
    80002612:	00014097          	auipc	ra,0x14
    80002616:	260080e7          	jalr	608(ra) # 80016872 <_ZN4core4cell13Cell$LT$T$GT$3set17hc3ac7665606696e2E>
    8000261a:	a009                	j	8000261c <.LBB5_17+0x74>
        SpinlockGuard{spinlock: &self}
    8000261c:	6506                	ld	a0,64(sp)
    8000261e:	e4aa                	sd	a0,72(sp)
    }
    80002620:	70aa                	ld	ra,168(sp)
    80002622:	614d                	addi	sp,sp,176
    80002624:	8082                	ret

Disassembly of section .text._ZN6kernel4lock8spinlock17Spinlock$LT$T$GT$7acquire17h8389d69ab210972bE:

0000000080002626 <_ZN6kernel4lock8spinlock17Spinlock$LT$T$GT$7acquire17h8389d69ab210972bE>:
    pub fn acquire(&self) -> SpinlockGuard<'_, T> {
    80002626:	7171                	addi	sp,sp,-176
    80002628:	f506                	sd	ra,168(sp)
    8000262a:	e0aa                	sd	a0,64(sp)
        push_off();
    8000262c:	0001b097          	auipc	ra,0x1b
    80002630:	588080e7          	jalr	1416(ra) # 8001dbb4 <_ZN6kernel7process3cpu8push_off17hfa6b48b440145057E>
    80002634:	a009                	j	80002636 <_ZN6kernel4lock8spinlock17Spinlock$LT$T$GT$7acquire17h8389d69ab210972bE+0x10>
        if self.holding() {
    80002636:	6506                	ld	a0,64(sp)
    80002638:	00001097          	auipc	ra,0x1
    8000263c:	dda080e7          	jalr	-550(ra) # 80003412 <_ZN6kernel4lock8spinlock17Spinlock$LT$T$GT$7holding17h3d6714fbd433d25eE>
    80002640:	fc2a                	sd	a0,56(sp)
    80002642:	a009                	j	80002644 <_ZN6kernel4lock8spinlock17Spinlock$LT$T$GT$7acquire17h8389d69ab210972bE+0x1e>
    80002644:	4501                	li	a0,0
    80002646:	75e2                	ld	a1,56(sp)
    80002648:	02a58163          	beq	a1,a0,8000266a <.LBB6_15+0x16>
    8000264c:	a009                	j	8000264e <_ZN6kernel4lock8spinlock17Spinlock$LT$T$GT$7acquire17h8389d69ab210972bE+0x28>
            panic!("spinlock {} acquire", self.name);
    8000264e:	6506                	ld	a0,64(sp)
    80002650:	e92a                	sd	a0,144(sp)
    80002652:	f12a                	sd	a0,160(sp)

0000000080002654 <.LBB6_15>:
    80002654:	00005597          	auipc	a1,0x5
    80002658:	72e58593          	addi	a1,a1,1838 # 80007d82 <_ZN44_$LT$$RF$T$u20$as$u20$core..fmt..Display$GT$3fmt17hf9f75f72a35e80d1E>
    8000265c:	00005097          	auipc	ra,0x5
    80002660:	7da080e7          	jalr	2010(ra) # 80007e36 <_ZN4core3fmt10ArgumentV13new17h8e1aa6c8ae6fe746E>
    80002664:	f82a                	sd	a0,48(sp)
    80002666:	f42e                	sd	a1,40(sp)
    80002668:	a011                	j	8000266c <.LBB6_15+0x18>
        while self.locked.swap(true, Ordering::Acquire){
    8000266a:	a825                	j	800026a2 <.LBB6_17+0x14>
            panic!("spinlock {} acquire", self.name);
    8000266c:	7542                	ld	a0,48(sp)
    8000266e:	e12a                	sd	a0,128(sp)
    80002670:	75a2                	ld	a1,40(sp)
    80002672:	e52e                	sd	a1,136(sp)

0000000080002674 <.LBB6_16>:
    80002674:	00021597          	auipc	a1,0x21
    80002678:	74c58593          	addi	a1,a1,1868 # 80023dc0 <.L__unnamed_1>
    8000267c:	0888                	addi	a0,sp,80
    8000267e:	4609                	li	a2,2
    80002680:	0114                	addi	a3,sp,128
    80002682:	4705                	li	a4,1
    80002684:	00003097          	auipc	ra,0x3
    80002688:	0a0080e7          	jalr	160(ra) # 80005724 <_ZN4core3fmt9Arguments6new_v117h32892f729fc3a992E>
    8000268c:	a009                	j	8000268e <.LBB6_17>

000000008000268e <.LBB6_17>:
    8000268e:	00021597          	auipc	a1,0x21
    80002692:	76a58593          	addi	a1,a1,1898 # 80023df8 <.L__unnamed_2>
    80002696:	0888                	addi	a0,sp,80
    80002698:	0001e097          	auipc	ra,0x1e
    8000269c:	69e080e7          	jalr	1694(ra) # 80020d36 <_ZN4core9panicking9panic_fmt17ha4e041b5d1f17023E>
    800026a0:	0000                	unimp
        while self.locked.swap(true, Ordering::Acquire){
    800026a2:	6506                	ld	a0,64(sp)
    800026a4:	0561                	addi	a0,a0,24
    800026a6:	4589                	li	a1,2
    800026a8:	08b10f23          	sb	a1,158(sp)
    800026ac:	4605                	li	a2,1
    800026ae:	f02e                	sd	a1,32(sp)
    800026b0:	85b2                	mv	a1,a2
    800026b2:	7602                	ld	a2,32(sp)
    800026b4:	0000b097          	auipc	ra,0xb
    800026b8:	8c2080e7          	jalr	-1854(ra) # 8000cf76 <_ZN4core4sync6atomic10AtomicBool4swap17h7315060b63cdc0a0E>
    800026bc:	ec2a                	sd	a0,24(sp)
    800026be:	a009                	j	800026c0 <.LBB6_17+0x32>
    800026c0:	6562                	ld	a0,24(sp)
    800026c2:	e911                	bnez	a0,800026d6 <.LBB6_17+0x48>
    800026c4:	a009                	j	800026c6 <.LBB6_17+0x38>
    800026c6:	4511                	li	a0,4
        fence(Ordering::SeqCst);
    800026c8:	08a10fa3          	sb	a0,159(sp)
    800026cc:	0000b097          	auipc	ra,0xb
    800026d0:	9b2080e7          	jalr	-1614(ra) # 8000d07e <_ZN4core4sync6atomic5fence17h0ebfb6bf819e864eE>
    800026d4:	a039                	j	800026e2 <.LBB6_17+0x54>
            spin_loop();
    800026d6:	0000b097          	auipc	ra,0xb
    800026da:	694080e7          	jalr	1684(ra) # 8000dd6a <_ZN4core4hint9spin_loop17h9f450d83d2974701E>
    800026de:	a009                	j	800026e0 <.LBB6_17+0x52>
        while self.locked.swap(true, Ordering::Acquire){
    800026e0:	b7c9                	j	800026a2 <.LBB6_17+0x14>
            self.cpu_id.set(cpuid() as isize);
    800026e2:	6506                	ld	a0,64(sp)
    800026e4:	0541                	addi	a0,a0,16
    800026e6:	e82a                	sd	a0,16(sp)
    800026e8:	0001b097          	auipc	ra,0x1b
    800026ec:	fe8080e7          	jalr	-24(ra) # 8001d6d0 <_ZN6kernel7process3cpu5cpuid17h5f316aa1ea26c654E>
    800026f0:	e42a                	sd	a0,8(sp)
    800026f2:	a009                	j	800026f4 <.LBB6_17+0x66>
    800026f4:	6542                	ld	a0,16(sp)
    800026f6:	65a2                	ld	a1,8(sp)
    800026f8:	00014097          	auipc	ra,0x14
    800026fc:	17a080e7          	jalr	378(ra) # 80016872 <_ZN4core4cell13Cell$LT$T$GT$3set17hc3ac7665606696e2E>
    80002700:	a009                	j	80002702 <.LBB6_17+0x74>
        SpinlockGuard{spinlock: &self}
    80002702:	6506                	ld	a0,64(sp)
    80002704:	e4aa                	sd	a0,72(sp)
    }
    80002706:	70aa                	ld	ra,168(sp)
    80002708:	614d                	addi	sp,sp,176
    8000270a:	8082                	ret

Disassembly of section .text._ZN6kernel4lock8spinlock17Spinlock$LT$T$GT$7acquire17h90ae05c5a547776fE:

000000008000270c <_ZN6kernel4lock8spinlock17Spinlock$LT$T$GT$7acquire17h90ae05c5a547776fE>:
    pub fn acquire(&self) -> SpinlockGuard<'_, T> {
    8000270c:	7171                	addi	sp,sp,-176
    8000270e:	f506                	sd	ra,168(sp)
    80002710:	e0aa                	sd	a0,64(sp)
        push_off();
    80002712:	0001b097          	auipc	ra,0x1b
    80002716:	4a2080e7          	jalr	1186(ra) # 8001dbb4 <_ZN6kernel7process3cpu8push_off17hfa6b48b440145057E>
    8000271a:	a009                	j	8000271c <_ZN6kernel4lock8spinlock17Spinlock$LT$T$GT$7acquire17h90ae05c5a547776fE+0x10>
        if self.holding() {
    8000271c:	6506                	ld	a0,64(sp)
    8000271e:	00001097          	auipc	ra,0x1
    80002722:	efc080e7          	jalr	-260(ra) # 8000361a <_ZN6kernel4lock8spinlock17Spinlock$LT$T$GT$7holding17h73a6541f93d2e3bfE>
    80002726:	fc2a                	sd	a0,56(sp)
    80002728:	a009                	j	8000272a <_ZN6kernel4lock8spinlock17Spinlock$LT$T$GT$7acquire17h90ae05c5a547776fE+0x1e>
    8000272a:	4501                	li	a0,0
    8000272c:	75e2                	ld	a1,56(sp)
    8000272e:	02a58163          	beq	a1,a0,80002750 <.LBB7_15+0x16>
    80002732:	a009                	j	80002734 <_ZN6kernel4lock8spinlock17Spinlock$LT$T$GT$7acquire17h90ae05c5a547776fE+0x28>
            panic!("spinlock {} acquire", self.name);
    80002734:	6506                	ld	a0,64(sp)
    80002736:	e92a                	sd	a0,144(sp)
    80002738:	f12a                	sd	a0,160(sp)

000000008000273a <.LBB7_15>:
    8000273a:	00005597          	auipc	a1,0x5
    8000273e:	64858593          	addi	a1,a1,1608 # 80007d82 <_ZN44_$LT$$RF$T$u20$as$u20$core..fmt..Display$GT$3fmt17hf9f75f72a35e80d1E>
    80002742:	00005097          	auipc	ra,0x5
    80002746:	6f4080e7          	jalr	1780(ra) # 80007e36 <_ZN4core3fmt10ArgumentV13new17h8e1aa6c8ae6fe746E>
    8000274a:	f82a                	sd	a0,48(sp)
    8000274c:	f42e                	sd	a1,40(sp)
    8000274e:	a011                	j	80002752 <.LBB7_15+0x18>
        while self.locked.swap(true, Ordering::Acquire){
    80002750:	a825                	j	80002788 <.LBB7_17+0x14>
            panic!("spinlock {} acquire", self.name);
    80002752:	7542                	ld	a0,48(sp)
    80002754:	e12a                	sd	a0,128(sp)
    80002756:	75a2                	ld	a1,40(sp)
    80002758:	e52e                	sd	a1,136(sp)

000000008000275a <.LBB7_16>:
    8000275a:	00021597          	auipc	a1,0x21
    8000275e:	66658593          	addi	a1,a1,1638 # 80023dc0 <.L__unnamed_1>
    80002762:	0888                	addi	a0,sp,80
    80002764:	4609                	li	a2,2
    80002766:	0114                	addi	a3,sp,128
    80002768:	4705                	li	a4,1
    8000276a:	00003097          	auipc	ra,0x3
    8000276e:	fba080e7          	jalr	-70(ra) # 80005724 <_ZN4core3fmt9Arguments6new_v117h32892f729fc3a992E>
    80002772:	a009                	j	80002774 <.LBB7_17>

0000000080002774 <.LBB7_17>:
    80002774:	00021597          	auipc	a1,0x21
    80002778:	68458593          	addi	a1,a1,1668 # 80023df8 <.L__unnamed_2>
    8000277c:	0888                	addi	a0,sp,80
    8000277e:	0001e097          	auipc	ra,0x1e
    80002782:	5b8080e7          	jalr	1464(ra) # 80020d36 <_ZN4core9panicking9panic_fmt17ha4e041b5d1f17023E>
    80002786:	0000                	unimp
        while self.locked.swap(true, Ordering::Acquire){
    80002788:	6506                	ld	a0,64(sp)
    8000278a:	0561                	addi	a0,a0,24
    8000278c:	4589                	li	a1,2
    8000278e:	08b10f23          	sb	a1,158(sp)
    80002792:	4605                	li	a2,1
    80002794:	f02e                	sd	a1,32(sp)
    80002796:	85b2                	mv	a1,a2
    80002798:	7602                	ld	a2,32(sp)
    8000279a:	0000a097          	auipc	ra,0xa
    8000279e:	7dc080e7          	jalr	2012(ra) # 8000cf76 <_ZN4core4sync6atomic10AtomicBool4swap17h7315060b63cdc0a0E>
    800027a2:	ec2a                	sd	a0,24(sp)
    800027a4:	a009                	j	800027a6 <.LBB7_17+0x32>
    800027a6:	6562                	ld	a0,24(sp)
    800027a8:	e911                	bnez	a0,800027bc <.LBB7_17+0x48>
    800027aa:	a009                	j	800027ac <.LBB7_17+0x38>
    800027ac:	4511                	li	a0,4
        fence(Ordering::SeqCst);
    800027ae:	08a10fa3          	sb	a0,159(sp)
    800027b2:	0000b097          	auipc	ra,0xb
    800027b6:	8cc080e7          	jalr	-1844(ra) # 8000d07e <_ZN4core4sync6atomic5fence17h0ebfb6bf819e864eE>
    800027ba:	a039                	j	800027c8 <.LBB7_17+0x54>
            spin_loop();
    800027bc:	0000b097          	auipc	ra,0xb
    800027c0:	5ae080e7          	jalr	1454(ra) # 8000dd6a <_ZN4core4hint9spin_loop17h9f450d83d2974701E>
    800027c4:	a009                	j	800027c6 <.LBB7_17+0x52>
        while self.locked.swap(true, Ordering::Acquire){
    800027c6:	b7c9                	j	80002788 <.LBB7_17+0x14>
            self.cpu_id.set(cpuid() as isize);
    800027c8:	6506                	ld	a0,64(sp)
    800027ca:	0541                	addi	a0,a0,16
    800027cc:	e82a                	sd	a0,16(sp)
    800027ce:	0001b097          	auipc	ra,0x1b
    800027d2:	f02080e7          	jalr	-254(ra) # 8001d6d0 <_ZN6kernel7process3cpu5cpuid17h5f316aa1ea26c654E>
    800027d6:	e42a                	sd	a0,8(sp)
    800027d8:	a009                	j	800027da <.LBB7_17+0x66>
    800027da:	6542                	ld	a0,16(sp)
    800027dc:	65a2                	ld	a1,8(sp)
    800027de:	00014097          	auipc	ra,0x14
    800027e2:	094080e7          	jalr	148(ra) # 80016872 <_ZN4core4cell13Cell$LT$T$GT$3set17hc3ac7665606696e2E>
    800027e6:	a009                	j	800027e8 <.LBB7_17+0x74>
        SpinlockGuard{spinlock: &self}
    800027e8:	6506                	ld	a0,64(sp)
    800027ea:	e4aa                	sd	a0,72(sp)
    }
    800027ec:	70aa                	ld	ra,168(sp)
    800027ee:	614d                	addi	sp,sp,176
    800027f0:	8082                	ret

Disassembly of section .text._ZN6kernel4lock8spinlock17Spinlock$LT$T$GT$7acquire17h9834c7f18834e8c0E:

00000000800027f2 <_ZN6kernel4lock8spinlock17Spinlock$LT$T$GT$7acquire17h9834c7f18834e8c0E>:
    pub fn acquire(&self) -> SpinlockGuard<'_, T> {
    800027f2:	7171                	addi	sp,sp,-176
    800027f4:	f506                	sd	ra,168(sp)
    800027f6:	e0aa                	sd	a0,64(sp)
        push_off();
    800027f8:	0001b097          	auipc	ra,0x1b
    800027fc:	3bc080e7          	jalr	956(ra) # 8001dbb4 <_ZN6kernel7process3cpu8push_off17hfa6b48b440145057E>
    80002800:	a009                	j	80002802 <_ZN6kernel4lock8spinlock17Spinlock$LT$T$GT$7acquire17h9834c7f18834e8c0E+0x10>
        if self.holding() {
    80002802:	6506                	ld	a0,64(sp)
    80002804:	00001097          	auipc	ra,0x1
    80002808:	f9c080e7          	jalr	-100(ra) # 800037a0 <_ZN6kernel4lock8spinlock17Spinlock$LT$T$GT$7holding17heb825e76c93963beE>
    8000280c:	fc2a                	sd	a0,56(sp)
    8000280e:	a009                	j	80002810 <_ZN6kernel4lock8spinlock17Spinlock$LT$T$GT$7acquire17h9834c7f18834e8c0E+0x1e>
    80002810:	4501                	li	a0,0
    80002812:	75e2                	ld	a1,56(sp)
    80002814:	02a58163          	beq	a1,a0,80002836 <.LBB8_15+0x16>
    80002818:	a009                	j	8000281a <_ZN6kernel4lock8spinlock17Spinlock$LT$T$GT$7acquire17h9834c7f18834e8c0E+0x28>
            panic!("spinlock {} acquire", self.name);
    8000281a:	6506                	ld	a0,64(sp)
    8000281c:	e92a                	sd	a0,144(sp)
    8000281e:	f12a                	sd	a0,160(sp)

0000000080002820 <.LBB8_15>:
    80002820:	00005597          	auipc	a1,0x5
    80002824:	56258593          	addi	a1,a1,1378 # 80007d82 <_ZN44_$LT$$RF$T$u20$as$u20$core..fmt..Display$GT$3fmt17hf9f75f72a35e80d1E>
    80002828:	00005097          	auipc	ra,0x5
    8000282c:	60e080e7          	jalr	1550(ra) # 80007e36 <_ZN4core3fmt10ArgumentV13new17h8e1aa6c8ae6fe746E>
    80002830:	f82a                	sd	a0,48(sp)
    80002832:	f42e                	sd	a1,40(sp)
    80002834:	a011                	j	80002838 <.LBB8_15+0x18>
        while self.locked.swap(true, Ordering::Acquire){
    80002836:	a825                	j	8000286e <.LBB8_17+0x14>
            panic!("spinlock {} acquire", self.name);
    80002838:	7542                	ld	a0,48(sp)
    8000283a:	e12a                	sd	a0,128(sp)
    8000283c:	75a2                	ld	a1,40(sp)
    8000283e:	e52e                	sd	a1,136(sp)

0000000080002840 <.LBB8_16>:
    80002840:	00021597          	auipc	a1,0x21
    80002844:	58058593          	addi	a1,a1,1408 # 80023dc0 <.L__unnamed_1>
    80002848:	0888                	addi	a0,sp,80
    8000284a:	4609                	li	a2,2
    8000284c:	0114                	addi	a3,sp,128
    8000284e:	4705                	li	a4,1
    80002850:	00003097          	auipc	ra,0x3
    80002854:	ed4080e7          	jalr	-300(ra) # 80005724 <_ZN4core3fmt9Arguments6new_v117h32892f729fc3a992E>
    80002858:	a009                	j	8000285a <.LBB8_17>

000000008000285a <.LBB8_17>:
    8000285a:	00021597          	auipc	a1,0x21
    8000285e:	59e58593          	addi	a1,a1,1438 # 80023df8 <.L__unnamed_2>
    80002862:	0888                	addi	a0,sp,80
    80002864:	0001e097          	auipc	ra,0x1e
    80002868:	4d2080e7          	jalr	1234(ra) # 80020d36 <_ZN4core9panicking9panic_fmt17ha4e041b5d1f17023E>
    8000286c:	0000                	unimp
        while self.locked.swap(true, Ordering::Acquire){
    8000286e:	6506                	ld	a0,64(sp)
    80002870:	0561                	addi	a0,a0,24
    80002872:	4589                	li	a1,2
    80002874:	08b10f23          	sb	a1,158(sp)
    80002878:	4605                	li	a2,1
    8000287a:	f02e                	sd	a1,32(sp)
    8000287c:	85b2                	mv	a1,a2
    8000287e:	7602                	ld	a2,32(sp)
    80002880:	0000a097          	auipc	ra,0xa
    80002884:	6f6080e7          	jalr	1782(ra) # 8000cf76 <_ZN4core4sync6atomic10AtomicBool4swap17h7315060b63cdc0a0E>
    80002888:	ec2a                	sd	a0,24(sp)
    8000288a:	a009                	j	8000288c <.LBB8_17+0x32>
    8000288c:	6562                	ld	a0,24(sp)
    8000288e:	e911                	bnez	a0,800028a2 <.LBB8_17+0x48>
    80002890:	a009                	j	80002892 <.LBB8_17+0x38>
    80002892:	4511                	li	a0,4
        fence(Ordering::SeqCst);
    80002894:	08a10fa3          	sb	a0,159(sp)
    80002898:	0000a097          	auipc	ra,0xa
    8000289c:	7e6080e7          	jalr	2022(ra) # 8000d07e <_ZN4core4sync6atomic5fence17h0ebfb6bf819e864eE>
    800028a0:	a039                	j	800028ae <.LBB8_17+0x54>
            spin_loop();
    800028a2:	0000b097          	auipc	ra,0xb
    800028a6:	4c8080e7          	jalr	1224(ra) # 8000dd6a <_ZN4core4hint9spin_loop17h9f450d83d2974701E>
    800028aa:	a009                	j	800028ac <.LBB8_17+0x52>
        while self.locked.swap(true, Ordering::Acquire){
    800028ac:	b7c9                	j	8000286e <.LBB8_17+0x14>
            self.cpu_id.set(cpuid() as isize);
    800028ae:	6506                	ld	a0,64(sp)
    800028b0:	0541                	addi	a0,a0,16
    800028b2:	e82a                	sd	a0,16(sp)
    800028b4:	0001b097          	auipc	ra,0x1b
    800028b8:	e1c080e7          	jalr	-484(ra) # 8001d6d0 <_ZN6kernel7process3cpu5cpuid17h5f316aa1ea26c654E>
    800028bc:	e42a                	sd	a0,8(sp)
    800028be:	a009                	j	800028c0 <.LBB8_17+0x66>
    800028c0:	6542                	ld	a0,16(sp)
    800028c2:	65a2                	ld	a1,8(sp)
    800028c4:	00014097          	auipc	ra,0x14
    800028c8:	fae080e7          	jalr	-82(ra) # 80016872 <_ZN4core4cell13Cell$LT$T$GT$3set17hc3ac7665606696e2E>
    800028cc:	a009                	j	800028ce <.LBB8_17+0x74>
        SpinlockGuard{spinlock: &self}
    800028ce:	6506                	ld	a0,64(sp)
    800028d0:	e4aa                	sd	a0,72(sp)
    }
    800028d2:	70aa                	ld	ra,168(sp)
    800028d4:	614d                	addi	sp,sp,176
    800028d6:	8082                	ret

Disassembly of section .text._ZN6kernel4lock8spinlock17Spinlock$LT$T$GT$7acquire17h9d5e8083f3242708E:

00000000800028d8 <_ZN6kernel4lock8spinlock17Spinlock$LT$T$GT$7acquire17h9d5e8083f3242708E>:
    pub fn acquire(&self) -> SpinlockGuard<'_, T> {
    800028d8:	7171                	addi	sp,sp,-176
    800028da:	f506                	sd	ra,168(sp)
    800028dc:	e0aa                	sd	a0,64(sp)
        push_off();
    800028de:	0001b097          	auipc	ra,0x1b
    800028e2:	2d6080e7          	jalr	726(ra) # 8001dbb4 <_ZN6kernel7process3cpu8push_off17hfa6b48b440145057E>
    800028e6:	a009                	j	800028e8 <_ZN6kernel4lock8spinlock17Spinlock$LT$T$GT$7acquire17h9d5e8083f3242708E+0x10>
        if self.holding() {
    800028e8:	6506                	ld	a0,64(sp)
    800028ea:	00001097          	auipc	ra,0x1
    800028ee:	a24080e7          	jalr	-1500(ra) # 8000330e <_ZN6kernel4lock8spinlock17Spinlock$LT$T$GT$7holding17h18aae879958f987fE>
    800028f2:	fc2a                	sd	a0,56(sp)
    800028f4:	a009                	j	800028f6 <_ZN6kernel4lock8spinlock17Spinlock$LT$T$GT$7acquire17h9d5e8083f3242708E+0x1e>
    800028f6:	4501                	li	a0,0
    800028f8:	75e2                	ld	a1,56(sp)
    800028fa:	02a58163          	beq	a1,a0,8000291c <.LBB9_15+0x16>
    800028fe:	a009                	j	80002900 <_ZN6kernel4lock8spinlock17Spinlock$LT$T$GT$7acquire17h9d5e8083f3242708E+0x28>
            panic!("spinlock {} acquire", self.name);
    80002900:	6506                	ld	a0,64(sp)
    80002902:	e92a                	sd	a0,144(sp)
    80002904:	f12a                	sd	a0,160(sp)

0000000080002906 <.LBB9_15>:
    80002906:	00005597          	auipc	a1,0x5
    8000290a:	47c58593          	addi	a1,a1,1148 # 80007d82 <_ZN44_$LT$$RF$T$u20$as$u20$core..fmt..Display$GT$3fmt17hf9f75f72a35e80d1E>
    8000290e:	00005097          	auipc	ra,0x5
    80002912:	528080e7          	jalr	1320(ra) # 80007e36 <_ZN4core3fmt10ArgumentV13new17h8e1aa6c8ae6fe746E>
    80002916:	f82a                	sd	a0,48(sp)
    80002918:	f42e                	sd	a1,40(sp)
    8000291a:	a011                	j	8000291e <.LBB9_15+0x18>
        while self.locked.swap(true, Ordering::Acquire){
    8000291c:	a825                	j	80002954 <.LBB9_17+0x14>
            panic!("spinlock {} acquire", self.name);
    8000291e:	7542                	ld	a0,48(sp)
    80002920:	e12a                	sd	a0,128(sp)
    80002922:	75a2                	ld	a1,40(sp)
    80002924:	e52e                	sd	a1,136(sp)

0000000080002926 <.LBB9_16>:
    80002926:	00021597          	auipc	a1,0x21
    8000292a:	49a58593          	addi	a1,a1,1178 # 80023dc0 <.L__unnamed_1>
    8000292e:	0888                	addi	a0,sp,80
    80002930:	4609                	li	a2,2
    80002932:	0114                	addi	a3,sp,128
    80002934:	4705                	li	a4,1
    80002936:	00003097          	auipc	ra,0x3
    8000293a:	dee080e7          	jalr	-530(ra) # 80005724 <_ZN4core3fmt9Arguments6new_v117h32892f729fc3a992E>
    8000293e:	a009                	j	80002940 <.LBB9_17>

0000000080002940 <.LBB9_17>:
    80002940:	00021597          	auipc	a1,0x21
    80002944:	4b858593          	addi	a1,a1,1208 # 80023df8 <.L__unnamed_2>
    80002948:	0888                	addi	a0,sp,80
    8000294a:	0001e097          	auipc	ra,0x1e
    8000294e:	3ec080e7          	jalr	1004(ra) # 80020d36 <_ZN4core9panicking9panic_fmt17ha4e041b5d1f17023E>
    80002952:	0000                	unimp
        while self.locked.swap(true, Ordering::Acquire){
    80002954:	6506                	ld	a0,64(sp)
    80002956:	0561                	addi	a0,a0,24
    80002958:	4589                	li	a1,2
    8000295a:	08b10f23          	sb	a1,158(sp)
    8000295e:	4605                	li	a2,1
    80002960:	f02e                	sd	a1,32(sp)
    80002962:	85b2                	mv	a1,a2
    80002964:	7602                	ld	a2,32(sp)
    80002966:	0000a097          	auipc	ra,0xa
    8000296a:	610080e7          	jalr	1552(ra) # 8000cf76 <_ZN4core4sync6atomic10AtomicBool4swap17h7315060b63cdc0a0E>
    8000296e:	ec2a                	sd	a0,24(sp)
    80002970:	a009                	j	80002972 <.LBB9_17+0x32>
    80002972:	6562                	ld	a0,24(sp)
    80002974:	e911                	bnez	a0,80002988 <.LBB9_17+0x48>
    80002976:	a009                	j	80002978 <.LBB9_17+0x38>
    80002978:	4511                	li	a0,4
        fence(Ordering::SeqCst);
    8000297a:	08a10fa3          	sb	a0,159(sp)
    8000297e:	0000a097          	auipc	ra,0xa
    80002982:	700080e7          	jalr	1792(ra) # 8000d07e <_ZN4core4sync6atomic5fence17h0ebfb6bf819e864eE>
    80002986:	a039                	j	80002994 <.LBB9_17+0x54>
            spin_loop();
    80002988:	0000b097          	auipc	ra,0xb
    8000298c:	3e2080e7          	jalr	994(ra) # 8000dd6a <_ZN4core4hint9spin_loop17h9f450d83d2974701E>
    80002990:	a009                	j	80002992 <.LBB9_17+0x52>
        while self.locked.swap(true, Ordering::Acquire){
    80002992:	b7c9                	j	80002954 <.LBB9_17+0x14>
            self.cpu_id.set(cpuid() as isize);
    80002994:	6506                	ld	a0,64(sp)
    80002996:	0541                	addi	a0,a0,16
    80002998:	e82a                	sd	a0,16(sp)
    8000299a:	0001b097          	auipc	ra,0x1b
    8000299e:	d36080e7          	jalr	-714(ra) # 8001d6d0 <_ZN6kernel7process3cpu5cpuid17h5f316aa1ea26c654E>
    800029a2:	e42a                	sd	a0,8(sp)
    800029a4:	a009                	j	800029a6 <.LBB9_17+0x66>
    800029a6:	6542                	ld	a0,16(sp)
    800029a8:	65a2                	ld	a1,8(sp)
    800029aa:	00014097          	auipc	ra,0x14
    800029ae:	ec8080e7          	jalr	-312(ra) # 80016872 <_ZN4core4cell13Cell$LT$T$GT$3set17hc3ac7665606696e2E>
    800029b2:	a009                	j	800029b4 <.LBB9_17+0x74>
        SpinlockGuard{spinlock: &self}
    800029b4:	6506                	ld	a0,64(sp)
    800029b6:	e4aa                	sd	a0,72(sp)
    }
    800029b8:	70aa                	ld	ra,168(sp)
    800029ba:	614d                	addi	sp,sp,176
    800029bc:	8082                	ret

Disassembly of section .text._ZN6kernel4lock8spinlock17Spinlock$LT$T$GT$7acquire17ha7c1a4fdf7befea3E:

00000000800029be <_ZN6kernel4lock8spinlock17Spinlock$LT$T$GT$7acquire17ha7c1a4fdf7befea3E>:
    pub fn acquire(&self) -> SpinlockGuard<'_, T> {
    800029be:	7171                	addi	sp,sp,-176
    800029c0:	f506                	sd	ra,168(sp)
    800029c2:	e0aa                	sd	a0,64(sp)
        push_off();
    800029c4:	0001b097          	auipc	ra,0x1b
    800029c8:	1f0080e7          	jalr	496(ra) # 8001dbb4 <_ZN6kernel7process3cpu8push_off17hfa6b48b440145057E>
    800029cc:	a009                	j	800029ce <_ZN6kernel4lock8spinlock17Spinlock$LT$T$GT$7acquire17ha7c1a4fdf7befea3E+0x10>
        if self.holding() {
    800029ce:	6506                	ld	a0,64(sp)
    800029d0:	00001097          	auipc	ra,0x1
    800029d4:	ac4080e7          	jalr	-1340(ra) # 80003494 <_ZN6kernel4lock8spinlock17Spinlock$LT$T$GT$7holding17h52dff029dbbc3408E>
    800029d8:	fc2a                	sd	a0,56(sp)
    800029da:	a009                	j	800029dc <_ZN6kernel4lock8spinlock17Spinlock$LT$T$GT$7acquire17ha7c1a4fdf7befea3E+0x1e>
    800029dc:	4501                	li	a0,0
    800029de:	75e2                	ld	a1,56(sp)
    800029e0:	02a58163          	beq	a1,a0,80002a02 <.LBB10_15+0x16>
    800029e4:	a009                	j	800029e6 <_ZN6kernel4lock8spinlock17Spinlock$LT$T$GT$7acquire17ha7c1a4fdf7befea3E+0x28>
            panic!("spinlock {} acquire", self.name);
    800029e6:	6506                	ld	a0,64(sp)
    800029e8:	e92a                	sd	a0,144(sp)
    800029ea:	f12a                	sd	a0,160(sp)

00000000800029ec <.LBB10_15>:
    800029ec:	00005597          	auipc	a1,0x5
    800029f0:	39658593          	addi	a1,a1,918 # 80007d82 <_ZN44_$LT$$RF$T$u20$as$u20$core..fmt..Display$GT$3fmt17hf9f75f72a35e80d1E>
    800029f4:	00005097          	auipc	ra,0x5
    800029f8:	442080e7          	jalr	1090(ra) # 80007e36 <_ZN4core3fmt10ArgumentV13new17h8e1aa6c8ae6fe746E>
    800029fc:	f82a                	sd	a0,48(sp)
    800029fe:	f42e                	sd	a1,40(sp)
    80002a00:	a011                	j	80002a04 <.LBB10_15+0x18>
        while self.locked.swap(true, Ordering::Acquire){
    80002a02:	a825                	j	80002a3a <.LBB10_17+0x14>
            panic!("spinlock {} acquire", self.name);
    80002a04:	7542                	ld	a0,48(sp)
    80002a06:	e12a                	sd	a0,128(sp)
    80002a08:	75a2                	ld	a1,40(sp)
    80002a0a:	e52e                	sd	a1,136(sp)

0000000080002a0c <.LBB10_16>:
    80002a0c:	00021597          	auipc	a1,0x21
    80002a10:	3b458593          	addi	a1,a1,948 # 80023dc0 <.L__unnamed_1>
    80002a14:	0888                	addi	a0,sp,80
    80002a16:	4609                	li	a2,2
    80002a18:	0114                	addi	a3,sp,128
    80002a1a:	4705                	li	a4,1
    80002a1c:	00003097          	auipc	ra,0x3
    80002a20:	d08080e7          	jalr	-760(ra) # 80005724 <_ZN4core3fmt9Arguments6new_v117h32892f729fc3a992E>
    80002a24:	a009                	j	80002a26 <.LBB10_17>

0000000080002a26 <.LBB10_17>:
    80002a26:	00021597          	auipc	a1,0x21
    80002a2a:	3d258593          	addi	a1,a1,978 # 80023df8 <.L__unnamed_2>
    80002a2e:	0888                	addi	a0,sp,80
    80002a30:	0001e097          	auipc	ra,0x1e
    80002a34:	306080e7          	jalr	774(ra) # 80020d36 <_ZN4core9panicking9panic_fmt17ha4e041b5d1f17023E>
    80002a38:	0000                	unimp
        while self.locked.swap(true, Ordering::Acquire){
    80002a3a:	6506                	ld	a0,64(sp)
    80002a3c:	0561                	addi	a0,a0,24
    80002a3e:	4589                	li	a1,2
    80002a40:	08b10f23          	sb	a1,158(sp)
    80002a44:	4605                	li	a2,1
    80002a46:	f02e                	sd	a1,32(sp)
    80002a48:	85b2                	mv	a1,a2
    80002a4a:	7602                	ld	a2,32(sp)
    80002a4c:	0000a097          	auipc	ra,0xa
    80002a50:	52a080e7          	jalr	1322(ra) # 8000cf76 <_ZN4core4sync6atomic10AtomicBool4swap17h7315060b63cdc0a0E>
    80002a54:	ec2a                	sd	a0,24(sp)
    80002a56:	a009                	j	80002a58 <.LBB10_17+0x32>
    80002a58:	6562                	ld	a0,24(sp)
    80002a5a:	e911                	bnez	a0,80002a6e <.LBB10_17+0x48>
    80002a5c:	a009                	j	80002a5e <.LBB10_17+0x38>
    80002a5e:	4511                	li	a0,4
        fence(Ordering::SeqCst);
    80002a60:	08a10fa3          	sb	a0,159(sp)
    80002a64:	0000a097          	auipc	ra,0xa
    80002a68:	61a080e7          	jalr	1562(ra) # 8000d07e <_ZN4core4sync6atomic5fence17h0ebfb6bf819e864eE>
    80002a6c:	a039                	j	80002a7a <.LBB10_17+0x54>
            spin_loop();
    80002a6e:	0000b097          	auipc	ra,0xb
    80002a72:	2fc080e7          	jalr	764(ra) # 8000dd6a <_ZN4core4hint9spin_loop17h9f450d83d2974701E>
    80002a76:	a009                	j	80002a78 <.LBB10_17+0x52>
        while self.locked.swap(true, Ordering::Acquire){
    80002a78:	b7c9                	j	80002a3a <.LBB10_17+0x14>
            self.cpu_id.set(cpuid() as isize);
    80002a7a:	6506                	ld	a0,64(sp)
    80002a7c:	0541                	addi	a0,a0,16
    80002a7e:	e82a                	sd	a0,16(sp)
    80002a80:	0001b097          	auipc	ra,0x1b
    80002a84:	c50080e7          	jalr	-944(ra) # 8001d6d0 <_ZN6kernel7process3cpu5cpuid17h5f316aa1ea26c654E>
    80002a88:	e42a                	sd	a0,8(sp)
    80002a8a:	a009                	j	80002a8c <.LBB10_17+0x66>
    80002a8c:	6542                	ld	a0,16(sp)
    80002a8e:	65a2                	ld	a1,8(sp)
    80002a90:	00014097          	auipc	ra,0x14
    80002a94:	de2080e7          	jalr	-542(ra) # 80016872 <_ZN4core4cell13Cell$LT$T$GT$3set17hc3ac7665606696e2E>
    80002a98:	a009                	j	80002a9a <.LBB10_17+0x74>
        SpinlockGuard{spinlock: &self}
    80002a9a:	6506                	ld	a0,64(sp)
    80002a9c:	e4aa                	sd	a0,72(sp)
    }
    80002a9e:	70aa                	ld	ra,168(sp)
    80002aa0:	614d                	addi	sp,sp,176
    80002aa2:	8082                	ret

Disassembly of section .text._ZN6kernel4lock8spinlock17Spinlock$LT$T$GT$7release17h0a9fc2be2300cfbbE:

0000000080002aa4 <_ZN6kernel4lock8spinlock17Spinlock$LT$T$GT$7release17h0a9fc2be2300cfbbE>:

    pub fn release(&self) {
    80002aa4:	7175                	addi	sp,sp,-144
    80002aa6:	e506                	sd	ra,136(sp)
    80002aa8:	fcaa                	sd	a0,120(sp)
        if !self.holding() {
    80002aaa:	f02a                	sd	a0,32(sp)
    80002aac:	00001097          	auipc	ra,0x1
    80002ab0:	b6e080e7          	jalr	-1170(ra) # 8000361a <_ZN6kernel4lock8spinlock17Spinlock$LT$T$GT$7holding17h73a6541f93d2e3bfE>
    80002ab4:	ec2a                	sd	a0,24(sp)
    80002ab6:	a009                	j	80002ab8 <_ZN6kernel4lock8spinlock17Spinlock$LT$T$GT$7release17h0a9fc2be2300cfbbE+0x14>
    80002ab8:	6562                	ld	a0,24(sp)
    80002aba:	e105                	bnez	a0,80002ada <.LBB11_10+0x16>
    80002abc:	a009                	j	80002abe <_ZN6kernel4lock8spinlock17Spinlock$LT$T$GT$7release17h0a9fc2be2300cfbbE+0x1a>
            panic!("spinlock {} release", self.name);
    80002abe:	7502                	ld	a0,32(sp)
    80002ac0:	f4aa                	sd	a0,104(sp)
    80002ac2:	e12a                	sd	a0,128(sp)

0000000080002ac4 <.LBB11_10>:
    80002ac4:	00005597          	auipc	a1,0x5
    80002ac8:	2be58593          	addi	a1,a1,702 # 80007d82 <_ZN44_$LT$$RF$T$u20$as$u20$core..fmt..Display$GT$3fmt17hf9f75f72a35e80d1E>
    80002acc:	00005097          	auipc	ra,0x5
    80002ad0:	36a080e7          	jalr	874(ra) # 80007e36 <_ZN4core3fmt10ArgumentV13new17h8e1aa6c8ae6fe746E>
    80002ad4:	e82a                	sd	a0,16(sp)
    80002ad6:	e42e                	sd	a1,8(sp)
    80002ad8:	a809                	j	80002aea <.LBB11_10+0x26>
        }
        self.cpu_id.set(-1);
    80002ada:	7502                	ld	a0,32(sp)
    80002adc:	0541                	addi	a0,a0,16
    80002ade:	55fd                	li	a1,-1
    80002ae0:	00014097          	auipc	ra,0x14
    80002ae4:	d92080e7          	jalr	-622(ra) # 80016872 <_ZN4core4cell13Cell$LT$T$GT$3set17hc3ac7665606696e2E>
    80002ae8:	a825                	j	80002b20 <.LBB11_12+0x14>
            panic!("spinlock {} release", self.name);
    80002aea:	6542                	ld	a0,16(sp)
    80002aec:	ecaa                	sd	a0,88(sp)
    80002aee:	65a2                	ld	a1,8(sp)
    80002af0:	f0ae                	sd	a1,96(sp)

0000000080002af2 <.LBB11_11>:
    80002af2:	00021597          	auipc	a1,0x21
    80002af6:	31e58593          	addi	a1,a1,798 # 80023e10 <.L__unnamed_3>
    80002afa:	1028                	addi	a0,sp,40
    80002afc:	4609                	li	a2,2
    80002afe:	08b4                	addi	a3,sp,88
    80002b00:	4705                	li	a4,1
    80002b02:	00003097          	auipc	ra,0x3
    80002b06:	c22080e7          	jalr	-990(ra) # 80005724 <_ZN4core3fmt9Arguments6new_v117h32892f729fc3a992E>
    80002b0a:	a009                	j	80002b0c <.LBB11_12>

0000000080002b0c <.LBB11_12>:
    80002b0c:	00021597          	auipc	a1,0x21
    80002b10:	32458593          	addi	a1,a1,804 # 80023e30 <.L__unnamed_4>
    80002b14:	1028                	addi	a0,sp,40
    80002b16:	0001e097          	auipc	ra,0x1e
    80002b1a:	220080e7          	jalr	544(ra) # 80020d36 <_ZN4core9panicking9panic_fmt17ha4e041b5d1f17023E>
    80002b1e:	0000                	unimp
    80002b20:	4511                	li	a0,4
        fence(Ordering::SeqCst);
    80002b22:	06a10b23          	sb	a0,118(sp)
    80002b26:	0000a097          	auipc	ra,0xa
    80002b2a:	558080e7          	jalr	1368(ra) # 8000d07e <_ZN4core4sync6atomic5fence17h0ebfb6bf819e864eE>
    80002b2e:	a009                	j	80002b30 <.LBB11_12+0x24>
        self.locked.store(false, Ordering::Release);
    80002b30:	7502                	ld	a0,32(sp)
    80002b32:	0561                	addi	a0,a0,24
    80002b34:	4585                	li	a1,1
    80002b36:	06b10ba3          	sb	a1,119(sp)
    80002b3a:	4601                	li	a2,0
    80002b3c:	e02e                	sd	a1,0(sp)
    80002b3e:	85b2                	mv	a1,a2
    80002b40:	6602                	ld	a2,0(sp)
    80002b42:	0000a097          	auipc	ra,0xa
    80002b46:	478080e7          	jalr	1144(ra) # 8000cfba <_ZN4core4sync6atomic10AtomicBool5store17h7e5dfcadbe49301bE>
    80002b4a:	a009                	j	80002b4c <.LBB11_12+0x40>
        pop_off();
    80002b4c:	0001b097          	auipc	ra,0x1b
    80002b50:	0ec080e7          	jalr	236(ra) # 8001dc38 <_ZN6kernel7process3cpu7pop_off17h557110615c80d8f5E>
    80002b54:	a009                	j	80002b56 <.LBB11_12+0x4a>
    }
    80002b56:	60aa                	ld	ra,136(sp)
    80002b58:	6149                	addi	sp,sp,144
    80002b5a:	8082                	ret

Disassembly of section .text._ZN6kernel4lock8spinlock17Spinlock$LT$T$GT$7release17h3105c64f7ed3abd5E:

0000000080002b5c <_ZN6kernel4lock8spinlock17Spinlock$LT$T$GT$7release17h3105c64f7ed3abd5E>:
    pub fn release(&self) {
    80002b5c:	7175                	addi	sp,sp,-144
    80002b5e:	e506                	sd	ra,136(sp)
    80002b60:	fcaa                	sd	a0,120(sp)
        if !self.holding() {
    80002b62:	f02a                	sd	a0,32(sp)
    80002b64:	00001097          	auipc	ra,0x1
    80002b68:	bba080e7          	jalr	-1094(ra) # 8000371e <_ZN6kernel4lock8spinlock17Spinlock$LT$T$GT$7holding17he43f41ceeb6d2160E>
    80002b6c:	ec2a                	sd	a0,24(sp)
    80002b6e:	a009                	j	80002b70 <_ZN6kernel4lock8spinlock17Spinlock$LT$T$GT$7release17h3105c64f7ed3abd5E+0x14>
    80002b70:	6562                	ld	a0,24(sp)
    80002b72:	e105                	bnez	a0,80002b92 <.LBB12_10+0x16>
    80002b74:	a009                	j	80002b76 <_ZN6kernel4lock8spinlock17Spinlock$LT$T$GT$7release17h3105c64f7ed3abd5E+0x1a>
            panic!("spinlock {} release", self.name);
    80002b76:	7502                	ld	a0,32(sp)
    80002b78:	f4aa                	sd	a0,104(sp)
    80002b7a:	e12a                	sd	a0,128(sp)

0000000080002b7c <.LBB12_10>:
    80002b7c:	00005597          	auipc	a1,0x5
    80002b80:	20658593          	addi	a1,a1,518 # 80007d82 <_ZN44_$LT$$RF$T$u20$as$u20$core..fmt..Display$GT$3fmt17hf9f75f72a35e80d1E>
    80002b84:	00005097          	auipc	ra,0x5
    80002b88:	2b2080e7          	jalr	690(ra) # 80007e36 <_ZN4core3fmt10ArgumentV13new17h8e1aa6c8ae6fe746E>
    80002b8c:	e82a                	sd	a0,16(sp)
    80002b8e:	e42e                	sd	a1,8(sp)
    80002b90:	a809                	j	80002ba2 <.LBB12_10+0x26>
        self.cpu_id.set(-1);
    80002b92:	7502                	ld	a0,32(sp)
    80002b94:	0541                	addi	a0,a0,16
    80002b96:	55fd                	li	a1,-1
    80002b98:	00014097          	auipc	ra,0x14
    80002b9c:	cda080e7          	jalr	-806(ra) # 80016872 <_ZN4core4cell13Cell$LT$T$GT$3set17hc3ac7665606696e2E>
    80002ba0:	a825                	j	80002bd8 <.LBB12_12+0x14>
            panic!("spinlock {} release", self.name);
    80002ba2:	6542                	ld	a0,16(sp)
    80002ba4:	ecaa                	sd	a0,88(sp)
    80002ba6:	65a2                	ld	a1,8(sp)
    80002ba8:	f0ae                	sd	a1,96(sp)

0000000080002baa <.LBB12_11>:
    80002baa:	00021597          	auipc	a1,0x21
    80002bae:	26658593          	addi	a1,a1,614 # 80023e10 <.L__unnamed_3>
    80002bb2:	1028                	addi	a0,sp,40
    80002bb4:	4609                	li	a2,2
    80002bb6:	08b4                	addi	a3,sp,88
    80002bb8:	4705                	li	a4,1
    80002bba:	00003097          	auipc	ra,0x3
    80002bbe:	b6a080e7          	jalr	-1174(ra) # 80005724 <_ZN4core3fmt9Arguments6new_v117h32892f729fc3a992E>
    80002bc2:	a009                	j	80002bc4 <.LBB12_12>

0000000080002bc4 <.LBB12_12>:
    80002bc4:	00021597          	auipc	a1,0x21
    80002bc8:	26c58593          	addi	a1,a1,620 # 80023e30 <.L__unnamed_4>
    80002bcc:	1028                	addi	a0,sp,40
    80002bce:	0001e097          	auipc	ra,0x1e
    80002bd2:	168080e7          	jalr	360(ra) # 80020d36 <_ZN4core9panicking9panic_fmt17ha4e041b5d1f17023E>
    80002bd6:	0000                	unimp
    80002bd8:	4511                	li	a0,4
        fence(Ordering::SeqCst);
    80002bda:	06a10b23          	sb	a0,118(sp)
    80002bde:	0000a097          	auipc	ra,0xa
    80002be2:	4a0080e7          	jalr	1184(ra) # 8000d07e <_ZN4core4sync6atomic5fence17h0ebfb6bf819e864eE>
    80002be6:	a009                	j	80002be8 <.LBB12_12+0x24>
        self.locked.store(false, Ordering::Release);
    80002be8:	7502                	ld	a0,32(sp)
    80002bea:	0561                	addi	a0,a0,24
    80002bec:	4585                	li	a1,1
    80002bee:	06b10ba3          	sb	a1,119(sp)
    80002bf2:	4601                	li	a2,0
    80002bf4:	e02e                	sd	a1,0(sp)
    80002bf6:	85b2                	mv	a1,a2
    80002bf8:	6602                	ld	a2,0(sp)
    80002bfa:	0000a097          	auipc	ra,0xa
    80002bfe:	3c0080e7          	jalr	960(ra) # 8000cfba <_ZN4core4sync6atomic10AtomicBool5store17h7e5dfcadbe49301bE>
    80002c02:	a009                	j	80002c04 <.LBB12_12+0x40>
        pop_off();
    80002c04:	0001b097          	auipc	ra,0x1b
    80002c08:	034080e7          	jalr	52(ra) # 8001dc38 <_ZN6kernel7process3cpu7pop_off17h557110615c80d8f5E>
    80002c0c:	a009                	j	80002c0e <.LBB12_12+0x4a>
    }
    80002c0e:	60aa                	ld	ra,136(sp)
    80002c10:	6149                	addi	sp,sp,144
    80002c12:	8082                	ret

Disassembly of section .text._ZN6kernel4lock8spinlock17Spinlock$LT$T$GT$7release17h333990824090d9c9E:

0000000080002c14 <_ZN6kernel4lock8spinlock17Spinlock$LT$T$GT$7release17h333990824090d9c9E>:
    pub fn release(&self) {
    80002c14:	7175                	addi	sp,sp,-144
    80002c16:	e506                	sd	ra,136(sp)
    80002c18:	fcaa                	sd	a0,120(sp)
        if !self.holding() {
    80002c1a:	f02a                	sd	a0,32(sp)
    80002c1c:	00000097          	auipc	ra,0x0
    80002c20:	7f6080e7          	jalr	2038(ra) # 80003412 <_ZN6kernel4lock8spinlock17Spinlock$LT$T$GT$7holding17h3d6714fbd433d25eE>
    80002c24:	ec2a                	sd	a0,24(sp)
    80002c26:	a009                	j	80002c28 <_ZN6kernel4lock8spinlock17Spinlock$LT$T$GT$7release17h333990824090d9c9E+0x14>
    80002c28:	6562                	ld	a0,24(sp)
    80002c2a:	e105                	bnez	a0,80002c4a <.LBB13_10+0x16>
    80002c2c:	a009                	j	80002c2e <_ZN6kernel4lock8spinlock17Spinlock$LT$T$GT$7release17h333990824090d9c9E+0x1a>
            panic!("spinlock {} release", self.name);
    80002c2e:	7502                	ld	a0,32(sp)
    80002c30:	f4aa                	sd	a0,104(sp)
    80002c32:	e12a                	sd	a0,128(sp)

0000000080002c34 <.LBB13_10>:
    80002c34:	00005597          	auipc	a1,0x5
    80002c38:	14e58593          	addi	a1,a1,334 # 80007d82 <_ZN44_$LT$$RF$T$u20$as$u20$core..fmt..Display$GT$3fmt17hf9f75f72a35e80d1E>
    80002c3c:	00005097          	auipc	ra,0x5
    80002c40:	1fa080e7          	jalr	506(ra) # 80007e36 <_ZN4core3fmt10ArgumentV13new17h8e1aa6c8ae6fe746E>
    80002c44:	e82a                	sd	a0,16(sp)
    80002c46:	e42e                	sd	a1,8(sp)
    80002c48:	a809                	j	80002c5a <.LBB13_10+0x26>
        self.cpu_id.set(-1);
    80002c4a:	7502                	ld	a0,32(sp)
    80002c4c:	0541                	addi	a0,a0,16
    80002c4e:	55fd                	li	a1,-1
    80002c50:	00014097          	auipc	ra,0x14
    80002c54:	c22080e7          	jalr	-990(ra) # 80016872 <_ZN4core4cell13Cell$LT$T$GT$3set17hc3ac7665606696e2E>
    80002c58:	a825                	j	80002c90 <.LBB13_12+0x14>
            panic!("spinlock {} release", self.name);
    80002c5a:	6542                	ld	a0,16(sp)
    80002c5c:	ecaa                	sd	a0,88(sp)
    80002c5e:	65a2                	ld	a1,8(sp)
    80002c60:	f0ae                	sd	a1,96(sp)

0000000080002c62 <.LBB13_11>:
    80002c62:	00021597          	auipc	a1,0x21
    80002c66:	1ae58593          	addi	a1,a1,430 # 80023e10 <.L__unnamed_3>
    80002c6a:	1028                	addi	a0,sp,40
    80002c6c:	4609                	li	a2,2
    80002c6e:	08b4                	addi	a3,sp,88
    80002c70:	4705                	li	a4,1
    80002c72:	00003097          	auipc	ra,0x3
    80002c76:	ab2080e7          	jalr	-1358(ra) # 80005724 <_ZN4core3fmt9Arguments6new_v117h32892f729fc3a992E>
    80002c7a:	a009                	j	80002c7c <.LBB13_12>

0000000080002c7c <.LBB13_12>:
    80002c7c:	00021597          	auipc	a1,0x21
    80002c80:	1b458593          	addi	a1,a1,436 # 80023e30 <.L__unnamed_4>
    80002c84:	1028                	addi	a0,sp,40
    80002c86:	0001e097          	auipc	ra,0x1e
    80002c8a:	0b0080e7          	jalr	176(ra) # 80020d36 <_ZN4core9panicking9panic_fmt17ha4e041b5d1f17023E>
    80002c8e:	0000                	unimp
    80002c90:	4511                	li	a0,4
        fence(Ordering::SeqCst);
    80002c92:	06a10b23          	sb	a0,118(sp)
    80002c96:	0000a097          	auipc	ra,0xa
    80002c9a:	3e8080e7          	jalr	1000(ra) # 8000d07e <_ZN4core4sync6atomic5fence17h0ebfb6bf819e864eE>
    80002c9e:	a009                	j	80002ca0 <.LBB13_12+0x24>
        self.locked.store(false, Ordering::Release);
    80002ca0:	7502                	ld	a0,32(sp)
    80002ca2:	0561                	addi	a0,a0,24
    80002ca4:	4585                	li	a1,1
    80002ca6:	06b10ba3          	sb	a1,119(sp)
    80002caa:	4601                	li	a2,0
    80002cac:	e02e                	sd	a1,0(sp)
    80002cae:	85b2                	mv	a1,a2
    80002cb0:	6602                	ld	a2,0(sp)
    80002cb2:	0000a097          	auipc	ra,0xa
    80002cb6:	308080e7          	jalr	776(ra) # 8000cfba <_ZN4core4sync6atomic10AtomicBool5store17h7e5dfcadbe49301bE>
    80002cba:	a009                	j	80002cbc <.LBB13_12+0x40>
        pop_off();
    80002cbc:	0001b097          	auipc	ra,0x1b
    80002cc0:	f7c080e7          	jalr	-132(ra) # 8001dc38 <_ZN6kernel7process3cpu7pop_off17h557110615c80d8f5E>
    80002cc4:	a009                	j	80002cc6 <.LBB13_12+0x4a>
    }
    80002cc6:	60aa                	ld	ra,136(sp)
    80002cc8:	6149                	addi	sp,sp,144
    80002cca:	8082                	ret

Disassembly of section .text._ZN6kernel4lock8spinlock17Spinlock$LT$T$GT$7release17h3475fa44672a5874E:

0000000080002ccc <_ZN6kernel4lock8spinlock17Spinlock$LT$T$GT$7release17h3475fa44672a5874E>:
    pub fn release(&self) {
    80002ccc:	7175                	addi	sp,sp,-144
    80002cce:	e506                	sd	ra,136(sp)
    80002cd0:	fcaa                	sd	a0,120(sp)
        if !self.holding() {
    80002cd2:	f02a                	sd	a0,32(sp)
    80002cd4:	00001097          	auipc	ra,0x1
    80002cd8:	842080e7          	jalr	-1982(ra) # 80003516 <_ZN6kernel4lock8spinlock17Spinlock$LT$T$GT$7holding17h59971422c37849b4E>
    80002cdc:	ec2a                	sd	a0,24(sp)
    80002cde:	a009                	j	80002ce0 <_ZN6kernel4lock8spinlock17Spinlock$LT$T$GT$7release17h3475fa44672a5874E+0x14>
    80002ce0:	6562                	ld	a0,24(sp)
    80002ce2:	e105                	bnez	a0,80002d02 <.LBB14_10+0x16>
    80002ce4:	a009                	j	80002ce6 <_ZN6kernel4lock8spinlock17Spinlock$LT$T$GT$7release17h3475fa44672a5874E+0x1a>
            panic!("spinlock {} release", self.name);
    80002ce6:	7502                	ld	a0,32(sp)
    80002ce8:	f4aa                	sd	a0,104(sp)
    80002cea:	e12a                	sd	a0,128(sp)

0000000080002cec <.LBB14_10>:
    80002cec:	00005597          	auipc	a1,0x5
    80002cf0:	09658593          	addi	a1,a1,150 # 80007d82 <_ZN44_$LT$$RF$T$u20$as$u20$core..fmt..Display$GT$3fmt17hf9f75f72a35e80d1E>
    80002cf4:	00005097          	auipc	ra,0x5
    80002cf8:	142080e7          	jalr	322(ra) # 80007e36 <_ZN4core3fmt10ArgumentV13new17h8e1aa6c8ae6fe746E>
    80002cfc:	e82a                	sd	a0,16(sp)
    80002cfe:	e42e                	sd	a1,8(sp)
    80002d00:	a809                	j	80002d12 <.LBB14_10+0x26>
        self.cpu_id.set(-1);
    80002d02:	7502                	ld	a0,32(sp)
    80002d04:	0541                	addi	a0,a0,16
    80002d06:	55fd                	li	a1,-1
    80002d08:	00014097          	auipc	ra,0x14
    80002d0c:	b6a080e7          	jalr	-1174(ra) # 80016872 <_ZN4core4cell13Cell$LT$T$GT$3set17hc3ac7665606696e2E>
    80002d10:	a825                	j	80002d48 <.LBB14_12+0x14>
            panic!("spinlock {} release", self.name);
    80002d12:	6542                	ld	a0,16(sp)
    80002d14:	ecaa                	sd	a0,88(sp)
    80002d16:	65a2                	ld	a1,8(sp)
    80002d18:	f0ae                	sd	a1,96(sp)

0000000080002d1a <.LBB14_11>:
    80002d1a:	00021597          	auipc	a1,0x21
    80002d1e:	0f658593          	addi	a1,a1,246 # 80023e10 <.L__unnamed_3>
    80002d22:	1028                	addi	a0,sp,40
    80002d24:	4609                	li	a2,2
    80002d26:	08b4                	addi	a3,sp,88
    80002d28:	4705                	li	a4,1
    80002d2a:	00003097          	auipc	ra,0x3
    80002d2e:	9fa080e7          	jalr	-1542(ra) # 80005724 <_ZN4core3fmt9Arguments6new_v117h32892f729fc3a992E>
    80002d32:	a009                	j	80002d34 <.LBB14_12>

0000000080002d34 <.LBB14_12>:
    80002d34:	00021597          	auipc	a1,0x21
    80002d38:	0fc58593          	addi	a1,a1,252 # 80023e30 <.L__unnamed_4>
    80002d3c:	1028                	addi	a0,sp,40
    80002d3e:	0001e097          	auipc	ra,0x1e
    80002d42:	ff8080e7          	jalr	-8(ra) # 80020d36 <_ZN4core9panicking9panic_fmt17ha4e041b5d1f17023E>
    80002d46:	0000                	unimp
    80002d48:	4511                	li	a0,4
        fence(Ordering::SeqCst);
    80002d4a:	06a10b23          	sb	a0,118(sp)
    80002d4e:	0000a097          	auipc	ra,0xa
    80002d52:	330080e7          	jalr	816(ra) # 8000d07e <_ZN4core4sync6atomic5fence17h0ebfb6bf819e864eE>
    80002d56:	a009                	j	80002d58 <.LBB14_12+0x24>
        self.locked.store(false, Ordering::Release);
    80002d58:	7502                	ld	a0,32(sp)
    80002d5a:	0561                	addi	a0,a0,24
    80002d5c:	4585                	li	a1,1
    80002d5e:	06b10ba3          	sb	a1,119(sp)
    80002d62:	4601                	li	a2,0
    80002d64:	e02e                	sd	a1,0(sp)
    80002d66:	85b2                	mv	a1,a2
    80002d68:	6602                	ld	a2,0(sp)
    80002d6a:	0000a097          	auipc	ra,0xa
    80002d6e:	250080e7          	jalr	592(ra) # 8000cfba <_ZN4core4sync6atomic10AtomicBool5store17h7e5dfcadbe49301bE>
    80002d72:	a009                	j	80002d74 <.LBB14_12+0x40>
        pop_off();
    80002d74:	0001b097          	auipc	ra,0x1b
    80002d78:	ec4080e7          	jalr	-316(ra) # 8001dc38 <_ZN6kernel7process3cpu7pop_off17h557110615c80d8f5E>
    80002d7c:	a009                	j	80002d7e <.LBB14_12+0x4a>
    }
    80002d7e:	60aa                	ld	ra,136(sp)
    80002d80:	6149                	addi	sp,sp,144
    80002d82:	8082                	ret

Disassembly of section .text._ZN6kernel4lock8spinlock17Spinlock$LT$T$GT$7release17h6bed4fb4dc60ee27E:

0000000080002d84 <_ZN6kernel4lock8spinlock17Spinlock$LT$T$GT$7release17h6bed4fb4dc60ee27E>:
    pub fn release(&self) {
    80002d84:	7175                	addi	sp,sp,-144
    80002d86:	e506                	sd	ra,136(sp)
    80002d88:	fcaa                	sd	a0,120(sp)
        if !self.holding() {
    80002d8a:	f02a                	sd	a0,32(sp)
    80002d8c:	00001097          	auipc	ra,0x1
    80002d90:	a14080e7          	jalr	-1516(ra) # 800037a0 <_ZN6kernel4lock8spinlock17Spinlock$LT$T$GT$7holding17heb825e76c93963beE>
    80002d94:	ec2a                	sd	a0,24(sp)
    80002d96:	a009                	j	80002d98 <_ZN6kernel4lock8spinlock17Spinlock$LT$T$GT$7release17h6bed4fb4dc60ee27E+0x14>
    80002d98:	6562                	ld	a0,24(sp)
    80002d9a:	e105                	bnez	a0,80002dba <.LBB15_10+0x16>
    80002d9c:	a009                	j	80002d9e <_ZN6kernel4lock8spinlock17Spinlock$LT$T$GT$7release17h6bed4fb4dc60ee27E+0x1a>
            panic!("spinlock {} release", self.name);
    80002d9e:	7502                	ld	a0,32(sp)
    80002da0:	f4aa                	sd	a0,104(sp)
    80002da2:	e12a                	sd	a0,128(sp)

0000000080002da4 <.LBB15_10>:
    80002da4:	00005597          	auipc	a1,0x5
    80002da8:	fde58593          	addi	a1,a1,-34 # 80007d82 <_ZN44_$LT$$RF$T$u20$as$u20$core..fmt..Display$GT$3fmt17hf9f75f72a35e80d1E>
    80002dac:	00005097          	auipc	ra,0x5
    80002db0:	08a080e7          	jalr	138(ra) # 80007e36 <_ZN4core3fmt10ArgumentV13new17h8e1aa6c8ae6fe746E>
    80002db4:	e82a                	sd	a0,16(sp)
    80002db6:	e42e                	sd	a1,8(sp)
    80002db8:	a809                	j	80002dca <.LBB15_10+0x26>
        self.cpu_id.set(-1);
    80002dba:	7502                	ld	a0,32(sp)
    80002dbc:	0541                	addi	a0,a0,16
    80002dbe:	55fd                	li	a1,-1
    80002dc0:	00014097          	auipc	ra,0x14
    80002dc4:	ab2080e7          	jalr	-1358(ra) # 80016872 <_ZN4core4cell13Cell$LT$T$GT$3set17hc3ac7665606696e2E>
    80002dc8:	a825                	j	80002e00 <.LBB15_12+0x14>
            panic!("spinlock {} release", self.name);
    80002dca:	6542                	ld	a0,16(sp)
    80002dcc:	ecaa                	sd	a0,88(sp)
    80002dce:	65a2                	ld	a1,8(sp)
    80002dd0:	f0ae                	sd	a1,96(sp)

0000000080002dd2 <.LBB15_11>:
    80002dd2:	00021597          	auipc	a1,0x21
    80002dd6:	03e58593          	addi	a1,a1,62 # 80023e10 <.L__unnamed_3>
    80002dda:	1028                	addi	a0,sp,40
    80002ddc:	4609                	li	a2,2
    80002dde:	08b4                	addi	a3,sp,88
    80002de0:	4705                	li	a4,1
    80002de2:	00003097          	auipc	ra,0x3
    80002de6:	942080e7          	jalr	-1726(ra) # 80005724 <_ZN4core3fmt9Arguments6new_v117h32892f729fc3a992E>
    80002dea:	a009                	j	80002dec <.LBB15_12>

0000000080002dec <.LBB15_12>:
    80002dec:	00021597          	auipc	a1,0x21
    80002df0:	04458593          	addi	a1,a1,68 # 80023e30 <.L__unnamed_4>
    80002df4:	1028                	addi	a0,sp,40
    80002df6:	0001e097          	auipc	ra,0x1e
    80002dfa:	f40080e7          	jalr	-192(ra) # 80020d36 <_ZN4core9panicking9panic_fmt17ha4e041b5d1f17023E>
    80002dfe:	0000                	unimp
    80002e00:	4511                	li	a0,4
        fence(Ordering::SeqCst);
    80002e02:	06a10b23          	sb	a0,118(sp)
    80002e06:	0000a097          	auipc	ra,0xa
    80002e0a:	278080e7          	jalr	632(ra) # 8000d07e <_ZN4core4sync6atomic5fence17h0ebfb6bf819e864eE>
    80002e0e:	a009                	j	80002e10 <.LBB15_12+0x24>
        self.locked.store(false, Ordering::Release);
    80002e10:	7502                	ld	a0,32(sp)
    80002e12:	0561                	addi	a0,a0,24
    80002e14:	4585                	li	a1,1
    80002e16:	06b10ba3          	sb	a1,119(sp)
    80002e1a:	4601                	li	a2,0
    80002e1c:	e02e                	sd	a1,0(sp)
    80002e1e:	85b2                	mv	a1,a2
    80002e20:	6602                	ld	a2,0(sp)
    80002e22:	0000a097          	auipc	ra,0xa
    80002e26:	198080e7          	jalr	408(ra) # 8000cfba <_ZN4core4sync6atomic10AtomicBool5store17h7e5dfcadbe49301bE>
    80002e2a:	a009                	j	80002e2c <.LBB15_12+0x40>
        pop_off();
    80002e2c:	0001b097          	auipc	ra,0x1b
    80002e30:	e0c080e7          	jalr	-500(ra) # 8001dc38 <_ZN6kernel7process3cpu7pop_off17h557110615c80d8f5E>
    80002e34:	a009                	j	80002e36 <.LBB15_12+0x4a>
    }
    80002e36:	60aa                	ld	ra,136(sp)
    80002e38:	6149                	addi	sp,sp,144
    80002e3a:	8082                	ret

Disassembly of section .text._ZN6kernel4lock8spinlock17Spinlock$LT$T$GT$7release17h8e15075d7634cc19E:

0000000080002e3c <_ZN6kernel4lock8spinlock17Spinlock$LT$T$GT$7release17h8e15075d7634cc19E>:
    pub fn release(&self) {
    80002e3c:	7175                	addi	sp,sp,-144
    80002e3e:	e506                	sd	ra,136(sp)
    80002e40:	fcaa                	sd	a0,120(sp)
        if !self.holding() {
    80002e42:	f02a                	sd	a0,32(sp)
    80002e44:	00000097          	auipc	ra,0x0
    80002e48:	448080e7          	jalr	1096(ra) # 8000328c <_ZN6kernel4lock8spinlock17Spinlock$LT$T$GT$7holding17h057493ae1eb3d720E>
    80002e4c:	ec2a                	sd	a0,24(sp)
    80002e4e:	a009                	j	80002e50 <_ZN6kernel4lock8spinlock17Spinlock$LT$T$GT$7release17h8e15075d7634cc19E+0x14>
    80002e50:	6562                	ld	a0,24(sp)
    80002e52:	e105                	bnez	a0,80002e72 <.LBB16_10+0x16>
    80002e54:	a009                	j	80002e56 <_ZN6kernel4lock8spinlock17Spinlock$LT$T$GT$7release17h8e15075d7634cc19E+0x1a>
            panic!("spinlock {} release", self.name);
    80002e56:	7502                	ld	a0,32(sp)
    80002e58:	f4aa                	sd	a0,104(sp)
    80002e5a:	e12a                	sd	a0,128(sp)

0000000080002e5c <.LBB16_10>:
    80002e5c:	00005597          	auipc	a1,0x5
    80002e60:	f2658593          	addi	a1,a1,-218 # 80007d82 <_ZN44_$LT$$RF$T$u20$as$u20$core..fmt..Display$GT$3fmt17hf9f75f72a35e80d1E>
    80002e64:	00005097          	auipc	ra,0x5
    80002e68:	fd2080e7          	jalr	-46(ra) # 80007e36 <_ZN4core3fmt10ArgumentV13new17h8e1aa6c8ae6fe746E>
    80002e6c:	e82a                	sd	a0,16(sp)
    80002e6e:	e42e                	sd	a1,8(sp)
    80002e70:	a809                	j	80002e82 <.LBB16_10+0x26>
        self.cpu_id.set(-1);
    80002e72:	7502                	ld	a0,32(sp)
    80002e74:	0541                	addi	a0,a0,16
    80002e76:	55fd                	li	a1,-1
    80002e78:	00014097          	auipc	ra,0x14
    80002e7c:	9fa080e7          	jalr	-1542(ra) # 80016872 <_ZN4core4cell13Cell$LT$T$GT$3set17hc3ac7665606696e2E>
    80002e80:	a825                	j	80002eb8 <.LBB16_12+0x14>
            panic!("spinlock {} release", self.name);
    80002e82:	6542                	ld	a0,16(sp)
    80002e84:	ecaa                	sd	a0,88(sp)
    80002e86:	65a2                	ld	a1,8(sp)
    80002e88:	f0ae                	sd	a1,96(sp)

0000000080002e8a <.LBB16_11>:
    80002e8a:	00021597          	auipc	a1,0x21
    80002e8e:	f8658593          	addi	a1,a1,-122 # 80023e10 <.L__unnamed_3>
    80002e92:	1028                	addi	a0,sp,40
    80002e94:	4609                	li	a2,2
    80002e96:	08b4                	addi	a3,sp,88
    80002e98:	4705                	li	a4,1
    80002e9a:	00003097          	auipc	ra,0x3
    80002e9e:	88a080e7          	jalr	-1910(ra) # 80005724 <_ZN4core3fmt9Arguments6new_v117h32892f729fc3a992E>
    80002ea2:	a009                	j	80002ea4 <.LBB16_12>

0000000080002ea4 <.LBB16_12>:
    80002ea4:	00021597          	auipc	a1,0x21
    80002ea8:	f8c58593          	addi	a1,a1,-116 # 80023e30 <.L__unnamed_4>
    80002eac:	1028                	addi	a0,sp,40
    80002eae:	0001e097          	auipc	ra,0x1e
    80002eb2:	e88080e7          	jalr	-376(ra) # 80020d36 <_ZN4core9panicking9panic_fmt17ha4e041b5d1f17023E>
    80002eb6:	0000                	unimp
    80002eb8:	4511                	li	a0,4
        fence(Ordering::SeqCst);
    80002eba:	06a10b23          	sb	a0,118(sp)
    80002ebe:	0000a097          	auipc	ra,0xa
    80002ec2:	1c0080e7          	jalr	448(ra) # 8000d07e <_ZN4core4sync6atomic5fence17h0ebfb6bf819e864eE>
    80002ec6:	a009                	j	80002ec8 <.LBB16_12+0x24>
        self.locked.store(false, Ordering::Release);
    80002ec8:	7502                	ld	a0,32(sp)
    80002eca:	0561                	addi	a0,a0,24
    80002ecc:	4585                	li	a1,1
    80002ece:	06b10ba3          	sb	a1,119(sp)
    80002ed2:	4601                	li	a2,0
    80002ed4:	e02e                	sd	a1,0(sp)
    80002ed6:	85b2                	mv	a1,a2
    80002ed8:	6602                	ld	a2,0(sp)
    80002eda:	0000a097          	auipc	ra,0xa
    80002ede:	0e0080e7          	jalr	224(ra) # 8000cfba <_ZN4core4sync6atomic10AtomicBool5store17h7e5dfcadbe49301bE>
    80002ee2:	a009                	j	80002ee4 <.LBB16_12+0x40>
        pop_off();
    80002ee4:	0001b097          	auipc	ra,0x1b
    80002ee8:	d54080e7          	jalr	-684(ra) # 8001dc38 <_ZN6kernel7process3cpu7pop_off17h557110615c80d8f5E>
    80002eec:	a009                	j	80002eee <.LBB16_12+0x4a>
    }
    80002eee:	60aa                	ld	ra,136(sp)
    80002ef0:	6149                	addi	sp,sp,144
    80002ef2:	8082                	ret

Disassembly of section .text._ZN6kernel4lock8spinlock17Spinlock$LT$T$GT$7release17hafcf7d3e54fd5e24E:

0000000080002ef4 <_ZN6kernel4lock8spinlock17Spinlock$LT$T$GT$7release17hafcf7d3e54fd5e24E>:
    pub fn release(&self) {
    80002ef4:	7175                	addi	sp,sp,-144
    80002ef6:	e506                	sd	ra,136(sp)
    80002ef8:	fcaa                	sd	a0,120(sp)
        if !self.holding() {
    80002efa:	f02a                	sd	a0,32(sp)
    80002efc:	00000097          	auipc	ra,0x0
    80002f00:	412080e7          	jalr	1042(ra) # 8000330e <_ZN6kernel4lock8spinlock17Spinlock$LT$T$GT$7holding17h18aae879958f987fE>
    80002f04:	ec2a                	sd	a0,24(sp)
    80002f06:	a009                	j	80002f08 <_ZN6kernel4lock8spinlock17Spinlock$LT$T$GT$7release17hafcf7d3e54fd5e24E+0x14>
    80002f08:	6562                	ld	a0,24(sp)
    80002f0a:	e105                	bnez	a0,80002f2a <.LBB17_10+0x16>
    80002f0c:	a009                	j	80002f0e <_ZN6kernel4lock8spinlock17Spinlock$LT$T$GT$7release17hafcf7d3e54fd5e24E+0x1a>
            panic!("spinlock {} release", self.name);
    80002f0e:	7502                	ld	a0,32(sp)
    80002f10:	f4aa                	sd	a0,104(sp)
    80002f12:	e12a                	sd	a0,128(sp)

0000000080002f14 <.LBB17_10>:
    80002f14:	00005597          	auipc	a1,0x5
    80002f18:	e6e58593          	addi	a1,a1,-402 # 80007d82 <_ZN44_$LT$$RF$T$u20$as$u20$core..fmt..Display$GT$3fmt17hf9f75f72a35e80d1E>
    80002f1c:	00005097          	auipc	ra,0x5
    80002f20:	f1a080e7          	jalr	-230(ra) # 80007e36 <_ZN4core3fmt10ArgumentV13new17h8e1aa6c8ae6fe746E>
    80002f24:	e82a                	sd	a0,16(sp)
    80002f26:	e42e                	sd	a1,8(sp)
    80002f28:	a809                	j	80002f3a <.LBB17_10+0x26>
        self.cpu_id.set(-1);
    80002f2a:	7502                	ld	a0,32(sp)
    80002f2c:	0541                	addi	a0,a0,16
    80002f2e:	55fd                	li	a1,-1
    80002f30:	00014097          	auipc	ra,0x14
    80002f34:	942080e7          	jalr	-1726(ra) # 80016872 <_ZN4core4cell13Cell$LT$T$GT$3set17hc3ac7665606696e2E>
    80002f38:	a825                	j	80002f70 <.LBB17_12+0x14>
            panic!("spinlock {} release", self.name);
    80002f3a:	6542                	ld	a0,16(sp)
    80002f3c:	ecaa                	sd	a0,88(sp)
    80002f3e:	65a2                	ld	a1,8(sp)
    80002f40:	f0ae                	sd	a1,96(sp)

0000000080002f42 <.LBB17_11>:
    80002f42:	00021597          	auipc	a1,0x21
    80002f46:	ece58593          	addi	a1,a1,-306 # 80023e10 <.L__unnamed_3>
    80002f4a:	1028                	addi	a0,sp,40
    80002f4c:	4609                	li	a2,2
    80002f4e:	08b4                	addi	a3,sp,88
    80002f50:	4705                	li	a4,1
    80002f52:	00002097          	auipc	ra,0x2
    80002f56:	7d2080e7          	jalr	2002(ra) # 80005724 <_ZN4core3fmt9Arguments6new_v117h32892f729fc3a992E>
    80002f5a:	a009                	j	80002f5c <.LBB17_12>

0000000080002f5c <.LBB17_12>:
    80002f5c:	00021597          	auipc	a1,0x21
    80002f60:	ed458593          	addi	a1,a1,-300 # 80023e30 <.L__unnamed_4>
    80002f64:	1028                	addi	a0,sp,40
    80002f66:	0001e097          	auipc	ra,0x1e
    80002f6a:	dd0080e7          	jalr	-560(ra) # 80020d36 <_ZN4core9panicking9panic_fmt17ha4e041b5d1f17023E>
    80002f6e:	0000                	unimp
    80002f70:	4511                	li	a0,4
        fence(Ordering::SeqCst);
    80002f72:	06a10b23          	sb	a0,118(sp)
    80002f76:	0000a097          	auipc	ra,0xa
    80002f7a:	108080e7          	jalr	264(ra) # 8000d07e <_ZN4core4sync6atomic5fence17h0ebfb6bf819e864eE>
    80002f7e:	a009                	j	80002f80 <.LBB17_12+0x24>
        self.locked.store(false, Ordering::Release);
    80002f80:	7502                	ld	a0,32(sp)
    80002f82:	0561                	addi	a0,a0,24
    80002f84:	4585                	li	a1,1
    80002f86:	06b10ba3          	sb	a1,119(sp)
    80002f8a:	4601                	li	a2,0
    80002f8c:	e02e                	sd	a1,0(sp)
    80002f8e:	85b2                	mv	a1,a2
    80002f90:	6602                	ld	a2,0(sp)
    80002f92:	0000a097          	auipc	ra,0xa
    80002f96:	028080e7          	jalr	40(ra) # 8000cfba <_ZN4core4sync6atomic10AtomicBool5store17h7e5dfcadbe49301bE>
    80002f9a:	a009                	j	80002f9c <.LBB17_12+0x40>
        pop_off();
    80002f9c:	0001b097          	auipc	ra,0x1b
    80002fa0:	c9c080e7          	jalr	-868(ra) # 8001dc38 <_ZN6kernel7process3cpu7pop_off17h557110615c80d8f5E>
    80002fa4:	a009                	j	80002fa6 <.LBB17_12+0x4a>
    }
    80002fa6:	60aa                	ld	ra,136(sp)
    80002fa8:	6149                	addi	sp,sp,144
    80002faa:	8082                	ret

Disassembly of section .text._ZN6kernel4lock8spinlock17Spinlock$LT$T$GT$7release17hcfc08786fca62e40E:

0000000080002fac <_ZN6kernel4lock8spinlock17Spinlock$LT$T$GT$7release17hcfc08786fca62e40E>:
    pub fn release(&self) {
    80002fac:	7175                	addi	sp,sp,-144
    80002fae:	e506                	sd	ra,136(sp)
    80002fb0:	fcaa                	sd	a0,120(sp)
        if !self.holding() {
    80002fb2:	f02a                	sd	a0,32(sp)
    80002fb4:	00000097          	auipc	ra,0x0
    80002fb8:	6e8080e7          	jalr	1768(ra) # 8000369c <_ZN6kernel4lock8spinlock17Spinlock$LT$T$GT$7holding17hd5fa1faa827a49a9E>
    80002fbc:	ec2a                	sd	a0,24(sp)
    80002fbe:	a009                	j	80002fc0 <_ZN6kernel4lock8spinlock17Spinlock$LT$T$GT$7release17hcfc08786fca62e40E+0x14>
    80002fc0:	6562                	ld	a0,24(sp)
    80002fc2:	e105                	bnez	a0,80002fe2 <.LBB18_10+0x16>
    80002fc4:	a009                	j	80002fc6 <_ZN6kernel4lock8spinlock17Spinlock$LT$T$GT$7release17hcfc08786fca62e40E+0x1a>
            panic!("spinlock {} release", self.name);
    80002fc6:	7502                	ld	a0,32(sp)
    80002fc8:	f4aa                	sd	a0,104(sp)
    80002fca:	e12a                	sd	a0,128(sp)

0000000080002fcc <.LBB18_10>:
    80002fcc:	00005597          	auipc	a1,0x5
    80002fd0:	db658593          	addi	a1,a1,-586 # 80007d82 <_ZN44_$LT$$RF$T$u20$as$u20$core..fmt..Display$GT$3fmt17hf9f75f72a35e80d1E>
    80002fd4:	00005097          	auipc	ra,0x5
    80002fd8:	e62080e7          	jalr	-414(ra) # 80007e36 <_ZN4core3fmt10ArgumentV13new17h8e1aa6c8ae6fe746E>
    80002fdc:	e82a                	sd	a0,16(sp)
    80002fde:	e42e                	sd	a1,8(sp)
    80002fe0:	a809                	j	80002ff2 <.LBB18_10+0x26>
        self.cpu_id.set(-1);
    80002fe2:	7502                	ld	a0,32(sp)
    80002fe4:	0541                	addi	a0,a0,16
    80002fe6:	55fd                	li	a1,-1
    80002fe8:	00014097          	auipc	ra,0x14
    80002fec:	88a080e7          	jalr	-1910(ra) # 80016872 <_ZN4core4cell13Cell$LT$T$GT$3set17hc3ac7665606696e2E>
    80002ff0:	a825                	j	80003028 <.LBB18_12+0x14>
            panic!("spinlock {} release", self.name);
    80002ff2:	6542                	ld	a0,16(sp)
    80002ff4:	ecaa                	sd	a0,88(sp)
    80002ff6:	65a2                	ld	a1,8(sp)
    80002ff8:	f0ae                	sd	a1,96(sp)

0000000080002ffa <.LBB18_11>:
    80002ffa:	00021597          	auipc	a1,0x21
    80002ffe:	e1658593          	addi	a1,a1,-490 # 80023e10 <.L__unnamed_3>
    80003002:	1028                	addi	a0,sp,40
    80003004:	4609                	li	a2,2
    80003006:	08b4                	addi	a3,sp,88
    80003008:	4705                	li	a4,1
    8000300a:	00002097          	auipc	ra,0x2
    8000300e:	71a080e7          	jalr	1818(ra) # 80005724 <_ZN4core3fmt9Arguments6new_v117h32892f729fc3a992E>
    80003012:	a009                	j	80003014 <.LBB18_12>

0000000080003014 <.LBB18_12>:
    80003014:	00021597          	auipc	a1,0x21
    80003018:	e1c58593          	addi	a1,a1,-484 # 80023e30 <.L__unnamed_4>
    8000301c:	1028                	addi	a0,sp,40
    8000301e:	0001e097          	auipc	ra,0x1e
    80003022:	d18080e7          	jalr	-744(ra) # 80020d36 <_ZN4core9panicking9panic_fmt17ha4e041b5d1f17023E>
    80003026:	0000                	unimp
    80003028:	4511                	li	a0,4
        fence(Ordering::SeqCst);
    8000302a:	06a10b23          	sb	a0,118(sp)
    8000302e:	0000a097          	auipc	ra,0xa
    80003032:	050080e7          	jalr	80(ra) # 8000d07e <_ZN4core4sync6atomic5fence17h0ebfb6bf819e864eE>
    80003036:	a009                	j	80003038 <.LBB18_12+0x24>
        self.locked.store(false, Ordering::Release);
    80003038:	7502                	ld	a0,32(sp)
    8000303a:	0561                	addi	a0,a0,24
    8000303c:	4585                	li	a1,1
    8000303e:	06b10ba3          	sb	a1,119(sp)
    80003042:	4601                	li	a2,0
    80003044:	e02e                	sd	a1,0(sp)
    80003046:	85b2                	mv	a1,a2
    80003048:	6602                	ld	a2,0(sp)
    8000304a:	0000a097          	auipc	ra,0xa
    8000304e:	f70080e7          	jalr	-144(ra) # 8000cfba <_ZN4core4sync6atomic10AtomicBool5store17h7e5dfcadbe49301bE>
    80003052:	a009                	j	80003054 <.LBB18_12+0x40>
        pop_off();
    80003054:	0001b097          	auipc	ra,0x1b
    80003058:	be4080e7          	jalr	-1052(ra) # 8001dc38 <_ZN6kernel7process3cpu7pop_off17h557110615c80d8f5E>
    8000305c:	a009                	j	8000305e <.LBB18_12+0x4a>
    }
    8000305e:	60aa                	ld	ra,136(sp)
    80003060:	6149                	addi	sp,sp,144
    80003062:	8082                	ret

Disassembly of section .text._ZN6kernel4lock8spinlock17Spinlock$LT$T$GT$7release17he596454499902299E:

0000000080003064 <_ZN6kernel4lock8spinlock17Spinlock$LT$T$GT$7release17he596454499902299E>:
    pub fn release(&self) {
    80003064:	7175                	addi	sp,sp,-144
    80003066:	e506                	sd	ra,136(sp)
    80003068:	fcaa                	sd	a0,120(sp)
        if !self.holding() {
    8000306a:	f02a                	sd	a0,32(sp)
    8000306c:	00000097          	auipc	ra,0x0
    80003070:	428080e7          	jalr	1064(ra) # 80003494 <_ZN6kernel4lock8spinlock17Spinlock$LT$T$GT$7holding17h52dff029dbbc3408E>
    80003074:	ec2a                	sd	a0,24(sp)
    80003076:	a009                	j	80003078 <_ZN6kernel4lock8spinlock17Spinlock$LT$T$GT$7release17he596454499902299E+0x14>
    80003078:	6562                	ld	a0,24(sp)
    8000307a:	e105                	bnez	a0,8000309a <.LBB19_10+0x16>
    8000307c:	a009                	j	8000307e <_ZN6kernel4lock8spinlock17Spinlock$LT$T$GT$7release17he596454499902299E+0x1a>
            panic!("spinlock {} release", self.name);
    8000307e:	7502                	ld	a0,32(sp)
    80003080:	f4aa                	sd	a0,104(sp)
    80003082:	e12a                	sd	a0,128(sp)

0000000080003084 <.LBB19_10>:
    80003084:	00005597          	auipc	a1,0x5
    80003088:	cfe58593          	addi	a1,a1,-770 # 80007d82 <_ZN44_$LT$$RF$T$u20$as$u20$core..fmt..Display$GT$3fmt17hf9f75f72a35e80d1E>
    8000308c:	00005097          	auipc	ra,0x5
    80003090:	daa080e7          	jalr	-598(ra) # 80007e36 <_ZN4core3fmt10ArgumentV13new17h8e1aa6c8ae6fe746E>
    80003094:	e82a                	sd	a0,16(sp)
    80003096:	e42e                	sd	a1,8(sp)
    80003098:	a809                	j	800030aa <.LBB19_10+0x26>
        self.cpu_id.set(-1);
    8000309a:	7502                	ld	a0,32(sp)
    8000309c:	0541                	addi	a0,a0,16
    8000309e:	55fd                	li	a1,-1
    800030a0:	00013097          	auipc	ra,0x13
    800030a4:	7d2080e7          	jalr	2002(ra) # 80016872 <_ZN4core4cell13Cell$LT$T$GT$3set17hc3ac7665606696e2E>
    800030a8:	a825                	j	800030e0 <.LBB19_12+0x14>
            panic!("spinlock {} release", self.name);
    800030aa:	6542                	ld	a0,16(sp)
    800030ac:	ecaa                	sd	a0,88(sp)
    800030ae:	65a2                	ld	a1,8(sp)
    800030b0:	f0ae                	sd	a1,96(sp)

00000000800030b2 <.LBB19_11>:
    800030b2:	00021597          	auipc	a1,0x21
    800030b6:	d5e58593          	addi	a1,a1,-674 # 80023e10 <.L__unnamed_3>
    800030ba:	1028                	addi	a0,sp,40
    800030bc:	4609                	li	a2,2
    800030be:	08b4                	addi	a3,sp,88
    800030c0:	4705                	li	a4,1
    800030c2:	00002097          	auipc	ra,0x2
    800030c6:	662080e7          	jalr	1634(ra) # 80005724 <_ZN4core3fmt9Arguments6new_v117h32892f729fc3a992E>
    800030ca:	a009                	j	800030cc <.LBB19_12>

00000000800030cc <.LBB19_12>:
    800030cc:	00021597          	auipc	a1,0x21
    800030d0:	d6458593          	addi	a1,a1,-668 # 80023e30 <.L__unnamed_4>
    800030d4:	1028                	addi	a0,sp,40
    800030d6:	0001e097          	auipc	ra,0x1e
    800030da:	c60080e7          	jalr	-928(ra) # 80020d36 <_ZN4core9panicking9panic_fmt17ha4e041b5d1f17023E>
    800030de:	0000                	unimp
    800030e0:	4511                	li	a0,4
        fence(Ordering::SeqCst);
    800030e2:	06a10b23          	sb	a0,118(sp)
    800030e6:	0000a097          	auipc	ra,0xa
    800030ea:	f98080e7          	jalr	-104(ra) # 8000d07e <_ZN4core4sync6atomic5fence17h0ebfb6bf819e864eE>
    800030ee:	a009                	j	800030f0 <.LBB19_12+0x24>
        self.locked.store(false, Ordering::Release);
    800030f0:	7502                	ld	a0,32(sp)
    800030f2:	0561                	addi	a0,a0,24
    800030f4:	4585                	li	a1,1
    800030f6:	06b10ba3          	sb	a1,119(sp)
    800030fa:	4601                	li	a2,0
    800030fc:	e02e                	sd	a1,0(sp)
    800030fe:	85b2                	mv	a1,a2
    80003100:	6602                	ld	a2,0(sp)
    80003102:	0000a097          	auipc	ra,0xa
    80003106:	eb8080e7          	jalr	-328(ra) # 8000cfba <_ZN4core4sync6atomic10AtomicBool5store17h7e5dfcadbe49301bE>
    8000310a:	a009                	j	8000310c <.LBB19_12+0x40>
        pop_off();
    8000310c:	0001b097          	auipc	ra,0x1b
    80003110:	b2c080e7          	jalr	-1236(ra) # 8001dc38 <_ZN6kernel7process3cpu7pop_off17h557110615c80d8f5E>
    80003114:	a009                	j	80003116 <.LBB19_12+0x4a>
    }
    80003116:	60aa                	ld	ra,136(sp)
    80003118:	6149                	addi	sp,sp,144
    8000311a:	8082                	ret

Disassembly of section .text._ZN6kernel4lock8spinlock17Spinlock$LT$T$GT$7release17he7f117cb3ee9e6c4E:

000000008000311c <_ZN6kernel4lock8spinlock17Spinlock$LT$T$GT$7release17he7f117cb3ee9e6c4E>:
    pub fn release(&self) {
    8000311c:	7175                	addi	sp,sp,-144
    8000311e:	e506                	sd	ra,136(sp)
    80003120:	fcaa                	sd	a0,120(sp)
        if !self.holding() {
    80003122:	f02a                	sd	a0,32(sp)
    80003124:	00000097          	auipc	ra,0x0
    80003128:	474080e7          	jalr	1140(ra) # 80003598 <_ZN6kernel4lock8spinlock17Spinlock$LT$T$GT$7holding17h5a90bba8cbf8105fE>
    8000312c:	ec2a                	sd	a0,24(sp)
    8000312e:	a009                	j	80003130 <_ZN6kernel4lock8spinlock17Spinlock$LT$T$GT$7release17he7f117cb3ee9e6c4E+0x14>
    80003130:	6562                	ld	a0,24(sp)
    80003132:	e105                	bnez	a0,80003152 <.LBB20_10+0x16>
    80003134:	a009                	j	80003136 <_ZN6kernel4lock8spinlock17Spinlock$LT$T$GT$7release17he7f117cb3ee9e6c4E+0x1a>
            panic!("spinlock {} release", self.name);
    80003136:	7502                	ld	a0,32(sp)
    80003138:	f4aa                	sd	a0,104(sp)
    8000313a:	e12a                	sd	a0,128(sp)

000000008000313c <.LBB20_10>:
    8000313c:	00005597          	auipc	a1,0x5
    80003140:	c4658593          	addi	a1,a1,-954 # 80007d82 <_ZN44_$LT$$RF$T$u20$as$u20$core..fmt..Display$GT$3fmt17hf9f75f72a35e80d1E>
    80003144:	00005097          	auipc	ra,0x5
    80003148:	cf2080e7          	jalr	-782(ra) # 80007e36 <_ZN4core3fmt10ArgumentV13new17h8e1aa6c8ae6fe746E>
    8000314c:	e82a                	sd	a0,16(sp)
    8000314e:	e42e                	sd	a1,8(sp)
    80003150:	a809                	j	80003162 <.LBB20_10+0x26>
        self.cpu_id.set(-1);
    80003152:	7502                	ld	a0,32(sp)
    80003154:	0541                	addi	a0,a0,16
    80003156:	55fd                	li	a1,-1
    80003158:	00013097          	auipc	ra,0x13
    8000315c:	71a080e7          	jalr	1818(ra) # 80016872 <_ZN4core4cell13Cell$LT$T$GT$3set17hc3ac7665606696e2E>
    80003160:	a825                	j	80003198 <.LBB20_12+0x14>
            panic!("spinlock {} release", self.name);
    80003162:	6542                	ld	a0,16(sp)
    80003164:	ecaa                	sd	a0,88(sp)
    80003166:	65a2                	ld	a1,8(sp)
    80003168:	f0ae                	sd	a1,96(sp)

000000008000316a <.LBB20_11>:
    8000316a:	00021597          	auipc	a1,0x21
    8000316e:	ca658593          	addi	a1,a1,-858 # 80023e10 <.L__unnamed_3>
    80003172:	1028                	addi	a0,sp,40
    80003174:	4609                	li	a2,2
    80003176:	08b4                	addi	a3,sp,88
    80003178:	4705                	li	a4,1
    8000317a:	00002097          	auipc	ra,0x2
    8000317e:	5aa080e7          	jalr	1450(ra) # 80005724 <_ZN4core3fmt9Arguments6new_v117h32892f729fc3a992E>
    80003182:	a009                	j	80003184 <.LBB20_12>

0000000080003184 <.LBB20_12>:
    80003184:	00021597          	auipc	a1,0x21
    80003188:	cac58593          	addi	a1,a1,-852 # 80023e30 <.L__unnamed_4>
    8000318c:	1028                	addi	a0,sp,40
    8000318e:	0001e097          	auipc	ra,0x1e
    80003192:	ba8080e7          	jalr	-1112(ra) # 80020d36 <_ZN4core9panicking9panic_fmt17ha4e041b5d1f17023E>
    80003196:	0000                	unimp
    80003198:	4511                	li	a0,4
        fence(Ordering::SeqCst);
    8000319a:	06a10b23          	sb	a0,118(sp)
    8000319e:	0000a097          	auipc	ra,0xa
    800031a2:	ee0080e7          	jalr	-288(ra) # 8000d07e <_ZN4core4sync6atomic5fence17h0ebfb6bf819e864eE>
    800031a6:	a009                	j	800031a8 <.LBB20_12+0x24>
        self.locked.store(false, Ordering::Release);
    800031a8:	7502                	ld	a0,32(sp)
    800031aa:	0561                	addi	a0,a0,24
    800031ac:	4585                	li	a1,1
    800031ae:	06b10ba3          	sb	a1,119(sp)
    800031b2:	4601                	li	a2,0
    800031b4:	e02e                	sd	a1,0(sp)
    800031b6:	85b2                	mv	a1,a2
    800031b8:	6602                	ld	a2,0(sp)
    800031ba:	0000a097          	auipc	ra,0xa
    800031be:	e00080e7          	jalr	-512(ra) # 8000cfba <_ZN4core4sync6atomic10AtomicBool5store17h7e5dfcadbe49301bE>
    800031c2:	a009                	j	800031c4 <.LBB20_12+0x40>
        pop_off();
    800031c4:	0001b097          	auipc	ra,0x1b
    800031c8:	a74080e7          	jalr	-1420(ra) # 8001dc38 <_ZN6kernel7process3cpu7pop_off17h557110615c80d8f5E>
    800031cc:	a009                	j	800031ce <.LBB20_12+0x4a>
    }
    800031ce:	60aa                	ld	ra,136(sp)
    800031d0:	6149                	addi	sp,sp,144
    800031d2:	8082                	ret

Disassembly of section .text._ZN6kernel4lock8spinlock17Spinlock$LT$T$GT$7release17hf94aca6222210a61E:

00000000800031d4 <_ZN6kernel4lock8spinlock17Spinlock$LT$T$GT$7release17hf94aca6222210a61E>:
    pub fn release(&self) {
    800031d4:	7175                	addi	sp,sp,-144
    800031d6:	e506                	sd	ra,136(sp)
    800031d8:	fcaa                	sd	a0,120(sp)
        if !self.holding() {
    800031da:	f02a                	sd	a0,32(sp)
    800031dc:	00000097          	auipc	ra,0x0
    800031e0:	1b4080e7          	jalr	436(ra) # 80003390 <_ZN6kernel4lock8spinlock17Spinlock$LT$T$GT$7holding17h1eebf6e52373c52cE>
    800031e4:	ec2a                	sd	a0,24(sp)
    800031e6:	a009                	j	800031e8 <_ZN6kernel4lock8spinlock17Spinlock$LT$T$GT$7release17hf94aca6222210a61E+0x14>
    800031e8:	6562                	ld	a0,24(sp)
    800031ea:	e105                	bnez	a0,8000320a <.LBB21_10+0x16>
    800031ec:	a009                	j	800031ee <_ZN6kernel4lock8spinlock17Spinlock$LT$T$GT$7release17hf94aca6222210a61E+0x1a>
            panic!("spinlock {} release", self.name);
    800031ee:	7502                	ld	a0,32(sp)
    800031f0:	f4aa                	sd	a0,104(sp)
    800031f2:	e12a                	sd	a0,128(sp)

00000000800031f4 <.LBB21_10>:
    800031f4:	00005597          	auipc	a1,0x5
    800031f8:	b8e58593          	addi	a1,a1,-1138 # 80007d82 <_ZN44_$LT$$RF$T$u20$as$u20$core..fmt..Display$GT$3fmt17hf9f75f72a35e80d1E>
    800031fc:	00005097          	auipc	ra,0x5
    80003200:	c3a080e7          	jalr	-966(ra) # 80007e36 <_ZN4core3fmt10ArgumentV13new17h8e1aa6c8ae6fe746E>
    80003204:	e82a                	sd	a0,16(sp)
    80003206:	e42e                	sd	a1,8(sp)
    80003208:	a809                	j	8000321a <.LBB21_10+0x26>
        self.cpu_id.set(-1);
    8000320a:	7502                	ld	a0,32(sp)
    8000320c:	0541                	addi	a0,a0,16
    8000320e:	55fd                	li	a1,-1
    80003210:	00013097          	auipc	ra,0x13
    80003214:	662080e7          	jalr	1634(ra) # 80016872 <_ZN4core4cell13Cell$LT$T$GT$3set17hc3ac7665606696e2E>
    80003218:	a825                	j	80003250 <.LBB21_12+0x14>
            panic!("spinlock {} release", self.name);
    8000321a:	6542                	ld	a0,16(sp)
    8000321c:	ecaa                	sd	a0,88(sp)
    8000321e:	65a2                	ld	a1,8(sp)
    80003220:	f0ae                	sd	a1,96(sp)

0000000080003222 <.LBB21_11>:
    80003222:	00021597          	auipc	a1,0x21
    80003226:	bee58593          	addi	a1,a1,-1042 # 80023e10 <.L__unnamed_3>
    8000322a:	1028                	addi	a0,sp,40
    8000322c:	4609                	li	a2,2
    8000322e:	08b4                	addi	a3,sp,88
    80003230:	4705                	li	a4,1
    80003232:	00002097          	auipc	ra,0x2
    80003236:	4f2080e7          	jalr	1266(ra) # 80005724 <_ZN4core3fmt9Arguments6new_v117h32892f729fc3a992E>
    8000323a:	a009                	j	8000323c <.LBB21_12>

000000008000323c <.LBB21_12>:
    8000323c:	00021597          	auipc	a1,0x21
    80003240:	bf458593          	addi	a1,a1,-1036 # 80023e30 <.L__unnamed_4>
    80003244:	1028                	addi	a0,sp,40
    80003246:	0001e097          	auipc	ra,0x1e
    8000324a:	af0080e7          	jalr	-1296(ra) # 80020d36 <_ZN4core9panicking9panic_fmt17ha4e041b5d1f17023E>
    8000324e:	0000                	unimp
    80003250:	4511                	li	a0,4
        fence(Ordering::SeqCst);
    80003252:	06a10b23          	sb	a0,118(sp)
    80003256:	0000a097          	auipc	ra,0xa
    8000325a:	e28080e7          	jalr	-472(ra) # 8000d07e <_ZN4core4sync6atomic5fence17h0ebfb6bf819e864eE>
    8000325e:	a009                	j	80003260 <.LBB21_12+0x24>
        self.locked.store(false, Ordering::Release);
    80003260:	7502                	ld	a0,32(sp)
    80003262:	0561                	addi	a0,a0,24
    80003264:	4585                	li	a1,1
    80003266:	06b10ba3          	sb	a1,119(sp)
    8000326a:	4601                	li	a2,0
    8000326c:	e02e                	sd	a1,0(sp)
    8000326e:	85b2                	mv	a1,a2
    80003270:	6602                	ld	a2,0(sp)
    80003272:	0000a097          	auipc	ra,0xa
    80003276:	d48080e7          	jalr	-696(ra) # 8000cfba <_ZN4core4sync6atomic10AtomicBool5store17h7e5dfcadbe49301bE>
    8000327a:	a009                	j	8000327c <.LBB21_12+0x40>
        pop_off();
    8000327c:	0001b097          	auipc	ra,0x1b
    80003280:	9bc080e7          	jalr	-1604(ra) # 8001dc38 <_ZN6kernel7process3cpu7pop_off17h557110615c80d8f5E>
    80003284:	a009                	j	80003286 <.LBB21_12+0x4a>
    }
    80003286:	60aa                	ld	ra,136(sp)
    80003288:	6149                	addi	sp,sp,144
    8000328a:	8082                	ret

Disassembly of section .text._ZN6kernel4lock8spinlock17Spinlock$LT$T$GT$7holding17h057493ae1eb3d720E:

000000008000328c <_ZN6kernel4lock8spinlock17Spinlock$LT$T$GT$7holding17h057493ae1eb3d720E>:

    // Check whether this cpu is holding the lock.
    // Interrupts must be off.
    pub fn holding(&self) -> bool{
    8000328c:	7139                	addi	sp,sp,-64
    8000328e:	fc06                	sd	ra,56(sp)
    80003290:	f82a                	sd	a0,48(sp)
        // self.locked.load(Ordering::Relaxed) && (self.cpu_id.get() == unsafe{ cpuid() } as isize)
        if self.locked.load(Ordering::Relaxed) && self.cpu_id.get() == unsafe{ cpuid() } as isize {
    80003292:	01850593          	addi	a1,a0,24
    80003296:	4601                	li	a2,0
    80003298:	02c107a3          	sb	a2,47(sp)
    8000329c:	f02a                	sd	a0,32(sp)
    8000329e:	852e                	mv	a0,a1
    800032a0:	85b2                	mv	a1,a2
    800032a2:	0000a097          	auipc	ra,0xa
    800032a6:	c9a080e7          	jalr	-870(ra) # 8000cf3c <_ZN4core4sync6atomic10AtomicBool4load17h0d4c9d106ba3b844E>
    800032aa:	ec2a                	sd	a0,24(sp)
    800032ac:	a035                	j	800032d8 <_ZN6kernel4lock8spinlock17Spinlock$LT$T$GT$7holding17h057493ae1eb3d720E+0x4c>
    800032ae:	4505                	li	a0,1
    800032b0:	02a10723          	sb	a0,46(sp)
    800032b4:	a829                	j	800032ce <_ZN6kernel4lock8spinlock17Spinlock$LT$T$GT$7holding17h057493ae1eb3d720E+0x42>
    800032b6:	4501                	li	a0,0
    800032b8:	02a10723          	sb	a0,46(sp)
    800032bc:	a809                	j	800032ce <_ZN6kernel4lock8spinlock17Spinlock$LT$T$GT$7holding17h057493ae1eb3d720E+0x42>
    800032be:	7502                	ld	a0,32(sp)
    800032c0:	0541                	addi	a0,a0,16
    800032c2:	00013097          	auipc	ra,0x13
    800032c6:	594080e7          	jalr	1428(ra) # 80016856 <_ZN4core4cell13Cell$LT$T$GT$3get17hb3554dc0e71bafcaE>
    800032ca:	e82a                	sd	a0,16(sp)
    800032cc:	a809                	j	800032de <_ZN6kernel4lock8spinlock17Spinlock$LT$T$GT$7holding17h057493ae1eb3d720E+0x52>
    800032ce:	02e14503          	lbu	a0,46(sp)
    800032d2:	8905                	andi	a0,a0,1
    800032d4:	e105                	bnez	a0,800032f4 <_ZN6kernel4lock8spinlock17Spinlock$LT$T$GT$7holding17h057493ae1eb3d720E+0x68>
    800032d6:	a01d                	j	800032fc <_ZN6kernel4lock8spinlock17Spinlock$LT$T$GT$7holding17h057493ae1eb3d720E+0x70>
    800032d8:	6562                	ld	a0,24(sp)
    800032da:	f175                	bnez	a0,800032be <_ZN6kernel4lock8spinlock17Spinlock$LT$T$GT$7holding17h057493ae1eb3d720E+0x32>
    800032dc:	bfe9                	j	800032b6 <_ZN6kernel4lock8spinlock17Spinlock$LT$T$GT$7holding17h057493ae1eb3d720E+0x2a>
    800032de:	0001a097          	auipc	ra,0x1a
    800032e2:	3f2080e7          	jalr	1010(ra) # 8001d6d0 <_ZN6kernel7process3cpu5cpuid17h5f316aa1ea26c654E>
    800032e6:	e42a                	sd	a0,8(sp)
    800032e8:	a009                	j	800032ea <_ZN6kernel4lock8spinlock17Spinlock$LT$T$GT$7holding17h057493ae1eb3d720E+0x5e>
    800032ea:	6542                	ld	a0,16(sp)
    800032ec:	65a2                	ld	a1,8(sp)
    800032ee:	fcb500e3          	beq	a0,a1,800032ae <_ZN6kernel4lock8spinlock17Spinlock$LT$T$GT$7holding17h057493ae1eb3d720E+0x22>
    800032f2:	b7d1                	j	800032b6 <_ZN6kernel4lock8spinlock17Spinlock$LT$T$GT$7holding17h057493ae1eb3d720E+0x2a>
    800032f4:	4505                	li	a0,1
            return true
    800032f6:	02a106a3          	sb	a0,45(sp)
        }
        false
    }
    800032fa:	a029                	j	80003304 <_ZN6kernel4lock8spinlock17Spinlock$LT$T$GT$7holding17h057493ae1eb3d720E+0x78>
    800032fc:	4501                	li	a0,0
        false
    800032fe:	02a106a3          	sb	a0,45(sp)
    }
    80003302:	a009                	j	80003304 <_ZN6kernel4lock8spinlock17Spinlock$LT$T$GT$7holding17h057493ae1eb3d720E+0x78>
    80003304:	02d14503          	lbu	a0,45(sp)
    80003308:	70e2                	ld	ra,56(sp)
    8000330a:	6121                	addi	sp,sp,64
    8000330c:	8082                	ret

Disassembly of section .text._ZN6kernel4lock8spinlock17Spinlock$LT$T$GT$7holding17h18aae879958f987fE:

000000008000330e <_ZN6kernel4lock8spinlock17Spinlock$LT$T$GT$7holding17h18aae879958f987fE>:
    pub fn holding(&self) -> bool{
    8000330e:	7139                	addi	sp,sp,-64
